EXPORTS
??0?$ArrayImpl@PAUGSVariable@@$00$00$0A@@@QAE@ABV0@@Z
??0?$ArrayImpl@PAUGSVariable@@$00$00$0A@@@QAE@H@Z
??0?$ArrayImpl@PAUGSVariable@@$00$00$0A@@@QAE@XZ
??0?$GSRootSetObject@U?$GSVector@PAVCppProfileInfo@@@@@@QAE@ABV0@@Z
??0?$GSRootSetObject@U?$GSVector@PAVCppProfileInfo@@@@@@QAE@XZ
??0?$GSVector@PAVCppProfileInfo@@@@QAE@ABU0@@Z
??0?$GSVector@PAVCppProfileInfo@@@@QAE@XZ
??0?$GSVector@VGSSharedString@@@@QAE@ABU0@@Z
??0?$GSVector@VGSSharedString@@@@QAE@XZ
??0?$ListImplNode@VGSCallSiteRecorder@@@@QAE@XZ
??0?$ListImplNode@VGSJob@@@@QAE@XZ
??0?$ListImplNode@VGSSuspendableStack@@@@QAE@XZ
??0?$ListImplNode_WithContainingList@VGSSuspendableStack@@@@QAE@XZ
??0?$_Vector_val@PAVCppProfileInfo@@V?$traceable_allocator@PAVCppProfileInfo@@@@@std@@IAE@V?$traceable_allocator@PAVCppProfileInfo@@@@@Z
??0?$_Vector_val@PAVCppProfileInfo@@V?$traceable_allocator@PAVCppProfileInfo@@@@@std@@QAE@ABV01@@Z
??0?$_Vector_val@VGSSharedString@@V?$traceable_allocator@VGSSharedString@@@@@std@@IAE@V?$traceable_allocator@VGSSharedString@@@@@Z
??0?$_Vector_val@VGSSharedString@@V?$traceable_allocator@VGSSharedString@@@@@std@@QAE@ABV01@@Z
??0?$vector@PAVCppProfileInfo@@V?$traceable_allocator@PAVCppProfileInfo@@@@@std@@QAE@ABV01@@Z
??0?$vector@PAVCppProfileInfo@@V?$traceable_allocator@PAVCppProfileInfo@@@@@std@@QAE@ABV?$traceable_allocator@PAVCppProfileInfo@@@@@Z
??0?$vector@PAVCppProfileInfo@@V?$traceable_allocator@PAVCppProfileInfo@@@@@std@@QAE@I@Z
??0?$vector@PAVCppProfileInfo@@V?$traceable_allocator@PAVCppProfileInfo@@@@@std@@QAE@IABQAVCppProfileInfo@@@Z
??0?$vector@PAVCppProfileInfo@@V?$traceable_allocator@PAVCppProfileInfo@@@@@std@@QAE@IABQAVCppProfileInfo@@ABV?$traceable_allocator@PAVCppProfileInfo@@@@@Z
??0?$vector@PAVCppProfileInfo@@V?$traceable_allocator@PAVCppProfileInfo@@@@@std@@QAE@XZ
??0?$vector@VGSSharedString@@V?$traceable_allocator@VGSSharedString@@@@@std@@QAE@ABV01@@Z
??0?$vector@VGSSharedString@@V?$traceable_allocator@VGSSharedString@@@@@std@@QAE@ABV?$traceable_allocator@VGSSharedString@@@@@Z
??0?$vector@VGSSharedString@@V?$traceable_allocator@VGSSharedString@@@@@std@@QAE@I@Z
??0?$vector@VGSSharedString@@V?$traceable_allocator@VGSSharedString@@@@@std@@QAE@IABVGSSharedString@@@Z
??0?$vector@VGSSharedString@@V?$traceable_allocator@VGSSharedString@@@@@std@@QAE@IABVGSSharedString@@ABV?$traceable_allocator@VGSSharedString@@@@@Z
??0?$vector@VGSSharedString@@V?$traceable_allocator@VGSSharedString@@@@@std@@QAE@XZ
??0CppProfileCollection@@AAE@XZ
??0CppProfileCollection@@QAE@ABV0@@Z
??0CppProfileInfo@@QAE@PBD@Z
??0GSAnnotationInit@@QAE@ABU0@@Z
??0GSAnnotationInit@@QAE@XZ
??0GSAspect@@QAE@ABV0@@Z
??0GSAspect@@QAE@XZ
??0GSAspectManager@@AAE@XZ
??0GSAspectManager@@QAE@ABV0@@Z
??0GSAtomicCounter@@QAE@H@Z
??0GSAtomicCounter@@QAE@XZ
??0GSBlobBuffer@@QAE@ABV0@@Z
??0GSBlobBuffer@@QAE@XZ
??0GSBlobBufferFinishedListener@@QAE@ABU0@@Z
??0GSBlobBufferFinishedListener@@QAE@XZ
??0GSBlobDecoderListener@@QAE@ABV0@@Z
??0GSBlobDecoderListener@@QAE@XZ
??0GSBlobDecoderListenerAdapter@@QAE@ABV0@@Z
??0GSBlobDecoderListenerAdapter@@QAE@XZ
??0GSBlobIOConfigurator@@QAE@PAVGSBlobIOLookup@@PBD@Z
??0GSBlobIOLookup@@QAE@ABV0@@Z
??0GSBlobIOLookup@@QAE@XZ
??0GSBufferWithMissingIdFinisher@@QAE@ABU0@@Z
??0GSBufferWithMissingIdFinisher@@QAE@PAVGSBlobBuffer@@@Z
??0GSCallSiteRecorder@@AAE@XZ
??0GSCallSiteRecorder@@QAE@ABV0@@Z
??0GSClass@@QAE@ABU0@@Z
??0GSClass@@QAE@XZ
??0GSClassAllocationSite@@QAE@ABU0@@Z
??0GSClassAllocationSite@@QAE@XZ
??0GSClassReflectionResolver@@QAE@ABU0@@Z
??0GSClassReflectionResolver@@QAE@XZ
??0GSClassStructureWalkerListener@@QAE@ABV0@@Z
??0GSClassStructureWalkerListener@@QAE@XZ
??0GSEnum@@QAE@ABU0@@Z
??0GSEnum@@QAE@XZ
??0GSExceptionCleanupHelper@@QAE@PAX@Z
??0GSExceptionContext@@QAE@XZ
??0GSFileAdapter@@QAE@ABV0@@Z
??0GSFileAdapter@@QAE@XZ
??0GSFileArchiveBuilder@@QAE@PBD@Z
??0GSFileDb@@QAE@VGSSharedString@@0@Z
??0GSFileIOStream@@QAE@XZ
??0GSFileWin32@@QAE@ABV0@@Z
??0GSFileWin32@@QAE@XZ
??0GSHandleResolver@@QAE@ABV0@@Z
??0GSHandleResolver@@QAE@XZ
??0GSInterpreter@@AAE@PBDPAPBDH@Z
??0GSInterpreter@@QAE@ABV0@@Z
??0GSJITCompiler@@QAE@ABV0@@Z
??0GSJITCompiler@@QAE@_N@Z
??0GSJob@@IAE@XZ
??0GSJob@@QAE@ABV0@@Z
??0GSJobRunRule@@QAE@ABU0@@Z
??0GSJobRunRule@@QAE@XZ
??0GSJobRunRuleComposite@@QAE@ABU0@@Z
??0GSJobRunRuleComposite@@QAE@XZ
??0GSJournal@@QAE@ABU0@@Z
??0GSJournal@@QAE@XZ
??0GSJournalingFileIOStream@@QAE@ABV0@@Z
??0GSJournalingFileIOStream@@QAE@XZ
??0GSMappedFile@@QAE@PBD_N@Z
??0GSMethod@@QAE@ABU0@@Z
??0GSMethod@@QAE@XZ
??0GSMutex@@QAE@XZ
??0GSMutexGC@@QAE@ABV0@@Z
??0GSMutexGC@@QAE@XZ
??0GSNativeCachedFileAutoLoc@@QAE@AAVGSNativeFileCache@@@Z
??0GSNativeCachedFileAutoLoc@@QAE@ABU0@@Z
??0GSNativeCachedFileAutoLoc@@QAE@PAVGSNativeFileCache@@@Z
??0GSNativeCachedFileBase@@QAE@AAVGSNativeFileCache@@@Z
??0GSNativeCachedFileBase@@QAE@ABV0@@Z
??0GSNativeCachedFileBase@@QAE@PAVGSNativeFileCache@@@Z
??0GSNativeFile@@QAE@ABV0@@Z
??0GSNativeFile@@QAE@XZ
??0GSNativeFileCache@@QAE@XZ
??0GSObjectBaseInfoTag@@QAE@ABU0@@Z
??0GSObjectBaseInfoTag@@QAE@XZ
??0GSPoolAllocator@@QAE@ABV0@@Z
??0GSPoolAllocator@@QAE@H_N@Z
??0GSReadWriteLock@@QAE@XZ
??0GSRegExp@@QAE@PBDH@Z
??0GSReplication@@QAE@ABU0@@Z
??0GSReplication@@QAE@XZ
??0GSScheduleEntryFilter@@QAE@ABU0@@Z
??0GSScheduleEntryFilter@@QAE@XZ
??0GSScheduler@@QAE@AAV0@@Z
??0GSScheduler@@QAE@XZ
??0GSSchedulerEntry@@QAE@ABU0@@Z
??0GSSchedulerEntry@@QAE@XZ
??0GSSchedulerEntryList@@QAE@AAV0@@Z
??0GSSchedulerEntryList@@QAE@XZ
??0GSSchedulerEntryMethodCall@@QAE@ABV0@@Z
??0GSSchedulerEntryMethodCall@@QAE@PAUGSObjectBase@@@Z
??0GSSchedulerStatisticEntry@@QAE@ABU0@@Z
??0GSSchedulerStatisticEntry@@QAE@XZ
??0GSSemaphore@@QAE@XZ
??0GSSharedSemaphore@@QAE@XZ
??0GSSharedSemaphoreRecursive@@QAE@XZ
??0GSSharedString@@QAE@ABV0@0@Z
??0GSSharedString@@QAE@ABV0@@Z
??0GSSharedString@@QAE@ABV?$basic_string@DU?$char_traits@D@std@@V?$stringpool_allocator@D@@@std@@@Z
??0GSSharedString@@QAE@PBD0@Z
??0GSSharedString@@QAE@PBDIW4SharedStringFlags@0@@Z
??0GSSharedString@@QAE@PBDW4SharedStringFlags@0@@Z
??0GSSharedString@@QAE@XZ
??0GSSpinLock@@QAE@XZ
??0GSSpinLockRecursive@@QAE@XZ
??0GSState@@QAE@ABU0@@Z
??0GSState@@QAE@XZ
??0GSStaticMutex@@QAE@XZ
??0GSStaticPointerBase@@IAE@XZ
??0GSStringBuilder@@AAE@ABV0@@Z
??0GSStringBuilder@@QAE@XZ
??0GSStringList@@QAE@ABU0@@Z
??0GSStringList@@QAE@XZ
??0GSStringTable@@QAE@ABU0@@Z
??0GSStringTable@@QAE@XZ
??0GSStringTableFS@@QAE@ABV0@@Z
??0GSStringTableFS@@QAE@PBD_N@Z
??0GSStringTableNetwork@@QAE@ABV0@@Z
??0GSStringTableNetwork@@QAE@XZ
??0GSStruct@@QAE@ABU0@@Z
??0GSStruct@@QAE@XZ
??0GSSuspendableStack@@AAE@XZ
??0GSTransactionMonitor@@QAE@ABU0@@Z
??0GSTransactionMonitor@@QAE@XZ
??0GSTypedGCObjectAllocator@@QAE@ABV0@@Z
??0GSTypedGCObjectAllocator@@QAE@XZ
??0GSTypedGCObjectDescriptionBuilder@@AAE@ABV0@@Z
??0GSTypedGCObjectDescriptionBuilder@@QAE@PBD@Z
??0GSTypedGCRelativeDescriptionBuilder@@QAE@AAV0@H@Z
??0GSTypedGCRelativeDescriptionBuilder@@QAE@PAVGSTypedGCObjectDescriptionBuilder@@H@Z
??0GSVariableCollection@@QAE@ABV0@@Z
??0GSVariableCollection@@QAE@XZ
??0GSWaitOnJobFinishJobRule@@QAE@ABV0@@Z
??0GSWaitOnJobFinishJobRule@@QAE@PAVGSJob@@@Z
??0GSWaitOnMultiJobsFinishRunRule@@QAE@ABV0@@Z
??0GSWaitOnMultiJobsFinishRunRule@@QAE@PAVGSJob@@00@Z
??0GSWaitOnMultiJobsFinishRunRule@@QAE@PAVGSJob@@0@Z
??0IGSFile@@QAE@ABU0@@Z
??0IGSFile@@QAE@XZ
??1?$ArrayImpl@PAUGSVariable@@$00$00$0A@@@QAE@XZ
??1?$GSRootSetObject@U?$GSVector@PAVCppProfileInfo@@@@@@QAE@XZ
??1?$GSVector@PAVCppProfileInfo@@@@QAE@XZ
??1?$GSVector@VGSSharedString@@@@QAE@XZ
??1?$_Vector_val@PAVCppProfileInfo@@V?$traceable_allocator@PAVCppProfileInfo@@@@@std@@QAE@XZ
??1?$_Vector_val@VGSSharedString@@V?$traceable_allocator@VGSSharedString@@@@@std@@QAE@XZ
??1?$vector@PAVCppProfileInfo@@V?$traceable_allocator@PAVCppProfileInfo@@@@@std@@QAE@XZ
??1?$vector@VGSSharedString@@V?$traceable_allocator@VGSSharedString@@@@@std@@QAE@XZ
??1CppProfileCollection@@QAE@XZ
??1CppProfileInfo@@QAE@XZ
??1GSAnnotationInit@@QAE@XZ
??1GSAspect@@UAE@XZ
??1GSAspectManager@@QAE@XZ
??1GSBlobBuffer@@QAE@XZ
??1GSBlobBufferFinishedListener@@UAE@XZ
??1GSBlobDecoderListener@@UAE@XZ
??1GSBlobDecoderListenerAdapter@@UAE@XZ
??1GSBlobIOLookup@@UAE@XZ
??1GSBufferWithMissingIdFinisher@@UAE@XZ
??1GSCallSiteRecorder@@QAE@XZ
??1GSClass@@QAE@XZ
??1GSClassAllocationSite@@QAE@XZ
??1GSClassReflectionResolver@@UAE@XZ
??1GSClassStructureWalkerListener@@UAE@XZ
??1GSEnum@@QAE@XZ
??1GSExceptionCleanupHelper@@QAE@XZ
??1GSFileAdapter@@UAE@XZ
??1GSFileIOStream@@UAE@XZ
??1GSFileWin32@@UAE@XZ
??1GSHandleResolver@@UAE@XZ
??1GSJob@@IAE@XZ
??1GSJobRunRule@@QAE@XZ
??1GSJobRunRuleComposite@@QAE@XZ
??1GSJournal@@UAE@XZ
??1GSJournalingFileIOStream@@UAE@XZ
??1GSMappedFile@@QAE@XZ
??1GSMethod@@QAE@XZ
??1GSMutex@@QAE@XZ
??1GSMutexGC@@UAE@XZ
??1GSNativeCachedFileAutoLoc@@UAE@XZ
??1GSNativeCachedFileBase@@UAE@XZ
??1GSNativeFile@@UAE@XZ
??1GSNativeFileCache@@QAE@XZ
??1GSObjectBaseInfoTag@@UAE@XZ
??1GSPoolAllocator@@QAE@XZ
??1GSReadWriteLock@@QAE@XZ
??1GSRegExp@@QAE@XZ
??1GSReplication@@QAE@XZ
??1GSScheduleEntryFilter@@UAE@XZ
??1GSSchedulerEntry@@UAE@XZ
??1GSSchedulerEntryMethodCall@@UAE@XZ
??1GSSchedulerStatisticEntry@@QAE@XZ
??1GSSemaphore@@QAE@XZ
??1GSSharedSemaphoreRecursive@@QAE@XZ
??1GSSharedString@@QAE@XZ
??1GSSpinLock@@QAE@XZ
??1GSSpinLockRecursive@@QAE@XZ
??1GSState@@QAE@XZ
??1GSStaticPointerBase@@IAE@XZ
??1GSStringBuilder@@QAE@XZ
??1GSStringList@@QAE@XZ
??1GSStringTable@@UAE@XZ
??1GSStringTableFS@@UAE@XZ
??1GSStringTableNetwork@@UAE@XZ
??1GSStruct@@QAE@XZ
??1GSTransactionMonitor@@UAE@XZ
??1GSTypedGCObjectAllocator@@UAE@XZ
??1GSTypedGCObjectDescriptionBuilder@@QAE@XZ
??1GSVariableCollection@@QAE@XZ
??1GSWaitOnJobFinishJobRule@@QAE@XZ
??1GSWaitOnMultiJobsFinishRunRule@@QAE@XZ
??1IGSFile@@UAE@XZ
??2?$GSVector@PAVCppProfileInfo@@@@SAPAXI@Z
??2?$GSVector@PAVCppProfileInfo@@@@SAPAXIPAX@Z
??2?$GSVector@PAVCppProfileInfo@@@@SAPAXIW4GCPlacement@@@Z
??2?$GSVector@VGSSharedString@@@@SAPAXI@Z
??2?$GSVector@VGSSharedString@@@@SAPAXIPAX@Z
??2?$GSVector@VGSSharedString@@@@SAPAXIW4GCPlacement@@@Z
??2GSAnnotationInit@@CAPAXIW4GCPlacement@@@Z
??2GSAnnotationInit@@SAPAXI@Z
??2GSAnnotationInit@@SAPAXIPAX@Z
??2GSAnnotationInitValue@@CAPAXIW4GCPlacement@@@Z
??2GSAnnotationInitValue@@SAPAXI@Z
??2GSAnnotationInitValue@@SAPAXIPAX@Z
??2GSAspect@@CAPAXIW4GCPlacement@@@Z
??2GSAspect@@SAPAXI@Z
??2GSAspect@@SAPAXIPAX@Z
??2GSAspectEntry@@CAPAXIW4GCPlacement@@@Z
??2GSAspectEntry@@SAPAXI@Z
??2GSAspectEntry@@SAPAXIPAX@Z
??2GSAspectEntryHead@@CAPAXIW4GCPlacement@@@Z
??2GSAspectEntryHead@@SAPAXI@Z
??2GSAspectEntryHead@@SAPAXIPAX@Z
??2GSAspectManager@@CAPAXIW4GCPlacement@@@Z
??2GSAspectManager@@SAPAXI@Z
??2GSAspectManager@@SAPAXIPAX@Z
??2GSAtomicCounter@@SAPAXI@Z
??2GSAtomicCounter@@SAPAXIPAX@Z
??2GSAtomicCounter@@SAPAXIW4GCPlacement@@@Z
??2GSBlobBuffer@@SAPAXI@Z
??2GSBlobBuffer@@SAPAXIPAX@Z
??2GSBlobBuffer@@SAPAXIW4GCPlacement@@@Z
??2GSBlobBufferFinishedListener@@SAPAXI@Z
??2GSBlobBufferFinishedListener@@SAPAXIPAX@Z
??2GSBlobBufferFinishedListener@@SAPAXIW4GCPlacement@@@Z
??2GSBlobDecoder@@SAPAXI@Z
??2GSBlobDecoder@@SAPAXIPAX@Z
??2GSBlobDecoder@@SAPAXIW4GCPlacement@@@Z
??2GSBlobDecoderListener@@SAPAXI@Z
??2GSBlobDecoderListener@@SAPAXIPAX@Z
??2GSBlobDecoderListener@@SAPAXIW4GCPlacement@@@Z
??2GSBlobIOLookup@@SAPAXI@Z
??2GSBlobIOLookup@@SAPAXIPAX@Z
??2GSBlobIOLookup@@SAPAXIW4GCPlacement@@@Z
??2GSBlobReader@@SAPAXI@Z
??2GSBlobReader@@SAPAXIPAX@Z
??2GSBlobReader@@SAPAXIW4GCPlacement@@@Z
??2GSBlobWriter@@SAPAXI@Z
??2GSBlobWriter@@SAPAXIPAX@Z
??2GSBlobWriter@@SAPAXIW4GCPlacement@@@Z
??2GSCallSiteRecorder@@CAPAXIW4GCPlacement@@@Z
??2GSCallSiteRecorder@@SAPAXI@Z
??2GSCallSiteRecorder@@SAPAXIPAX@Z
??2GSClass@@CAPAXIW4GCPlacement@@@Z
??2GSClass@@SAPAXI@Z
??2GSClass@@SAPAXIPAX@Z
??2GSClassAllocationSite@@CAPAXIW4GCPlacement@@@Z
??2GSClassAllocationSite@@SAPAXI@Z
??2GSClassAllocationSite@@SAPAXIPAX@Z
??2GSClassReference@@CAPAXIW4GCPlacement@@@Z
??2GSClassReference@@SAPAXI@Z
??2GSClassReference@@SAPAXIPAX@Z
??2GSClassReflectionResolver@@SAPAXI@Z
??2GSClassReflectionResolver@@SAPAXIPAX@Z
??2GSClassReflectionResolver@@SAPAXIW4GCPlacement@@@Z
??2GSClassStructureWalker@@SAPAXI@Z
??2GSClassStructureWalker@@SAPAXIPAX@Z
??2GSClassStructureWalker@@SAPAXIW4GCPlacement@@@Z
??2GSClassStructureWalkerListener@@SAPAXI@Z
??2GSClassStructureWalkerListener@@SAPAXIPAX@Z
??2GSClassStructureWalkerListener@@SAPAXIW4GCPlacement@@@Z
??2GSEnum@@CAPAXIW4GCPlacement@@@Z
??2GSEnum@@SAPAXI@Z
??2GSEnum@@SAPAXIPAX@Z
??2GSEnumValue@@CAPAXIW4GCPlacement@@@Z
??2GSEnumValue@@SAPAXI@Z
??2GSEnumValue@@SAPAXIPAX@Z
??2GSExceptionContext@@CAPAXIW4GCPlacement@@@Z
??2GSExceptionContext@@SAPAXI@Z
??2GSExceptionContext@@SAPAXIPAX@Z
??2GSExceptionHandler@@CAPAXIW4GCPlacement@@@Z
??2GSExceptionHandler@@SAPAXI@Z
??2GSExceptionHandler@@SAPAXIPAX@Z
??2GSExceptionInfo@@CAPAXIW4GCPlacement@@@Z
??2GSExceptionInfo@@SAPAXI@Z
??2GSExceptionInfo@@SAPAXIPAX@Z
??2GSFileArchiveBuilder@@SAPAXI@Z
??2GSFileArchiveBuilder@@SAPAXIPAX@Z
??2GSFileArchiveBuilder@@SAPAXIW4GCPlacement@@@Z
??2GSFileDb@@SAPAXI@Z
??2GSFileDb@@SAPAXIPAX@Z
??2GSFileDb@@SAPAXIW4GCPlacement@@@Z
??2GSHandleBase@@CAPAXIW4GCPlacement@@@Z
??2GSHandleBase@@SAPAXI@Z
??2GSHandleBase@@SAPAXIPAX@Z
??2GSHandleResolver@@SAPAXI@Z
??2GSHandleResolver@@SAPAXIPAX@Z
??2GSHandleResolver@@SAPAXIW4GCPlacement@@@Z
??2GSInterpreterExecutionContext@@CAPAXIW4GCPlacement@@@Z
??2GSInterpreterExecutionContext@@SAPAXI@Z
??2GSInterpreterExecutionContext@@SAPAXIPAX@Z
??2GSJob@@SAPAXI@Z
??2GSJob@@SAPAXIPAX@Z
??2GSJob@@SAPAXIW4GCPlacement@@@Z
??2GSJobRunRule@@SAPAXI@Z
??2GSJobRunRule@@SAPAXIPAX@Z
??2GSJobRunRule@@SAPAXIW4GCPlacement@@@Z
??2GSJobRunRuleComposite@@SAPAXI@Z
??2GSJobRunRuleComposite@@SAPAXIPAX@Z
??2GSJobRunRuleComposite@@SAPAXIW4GCPlacement@@@Z
??2GSJobScheduler@@SAPAXI@Z
??2GSJobScheduler@@SAPAXIPAX@Z
??2GSJobScheduler@@SAPAXIW4GCPlacement@@@Z
??2GSMethod@@CAPAXIW4GCPlacement@@@Z
??2GSMethod@@SAPAXI@Z
??2GSMethod@@SAPAXIPAX@Z
??2GSMethodParameter@@CAPAXIW4GCPlacement@@@Z
??2GSMethodParameter@@SAPAXI@Z
??2GSMethodParameter@@SAPAXIPAX@Z
??2GSNativeFileCache@@CAPAXIW4GCPlacement@@@Z
??2GSNativeFileCache@@SAPAXI@Z
??2GSNativeFileCache@@SAPAXIPAX@Z
??2GSObjectBase@@SAPAXI@Z
??2GSObjectBase@@SAPAXIPAX@Z
??2GSObjectBase@@SAPAXIW4GCPlacement@@@Z
??2GSObjectBaseInfoTag@@CAPAXIW4GCPlacement@@@Z
??2GSObjectBaseInfoTag@@SAPAXI@Z
??2GSObjectBaseInfoTag@@SAPAXIPAX@Z
??2GSPoolAllocator@@SAPAXI@Z
??2GSPoolAllocator@@SAPAXIPAX@Z
??2GSPoolAllocator@@SAPAXIW4GCPlacement@@@Z
??2GSProxyBase@@CAPAXIW4GCPlacement@@@Z
??2GSProxyBase@@SAPAXI@Z
??2GSProxyBase@@SAPAXIPAX@Z
??2GSRegExp@@SAPAXI@Z
??2GSRegExp@@SAPAXIPAX@Z
??2GSRegExp@@SAPAXIW4GCPlacement@@@Z
??2GSReplication@@CAPAXIW4GCPlacement@@@Z
??2GSReplication@@SAPAXI@Z
??2GSReplication@@SAPAXIPAX@Z
??2GSScheduleEntryFilter@@SAPAXI@Z
??2GSScheduleEntryFilter@@SAPAXIPAX@Z
??2GSScheduleEntryFilter@@SAPAXIW4GCPlacement@@@Z
??2GSScheduler@@SAPAXI@Z
??2GSScheduler@@SAPAXIPAX@Z
??2GSScheduler@@SAPAXIW4GCPlacement@@@Z
??2GSSchedulerEntry@@CAPAXIW4GCPlacement@@@Z
??2GSSchedulerEntry@@SAPAXI@Z
??2GSSchedulerEntry@@SAPAXIPAX@Z
??2GSSchedulerEntryList@@SAPAXI@Z
??2GSSchedulerEntryList@@SAPAXIPAX@Z
??2GSSchedulerEntryList@@SAPAXIW4GCPlacement@@@Z
??2GSSchedulerEntryMethodCall@@CAPAXIW4GCPlacement@@@Z
??2GSSchedulerEntryMethodCall@@SAPAXI@Z
??2GSSchedulerEntryMethodCall@@SAPAXIPAX@Z
??2GSSchedulerStatisticEntry@@SAPAXI@Z
??2GSSchedulerStatisticEntry@@SAPAXIPAX@Z
??2GSSchedulerStatisticEntry@@SAPAXIW4GCPlacement@@@Z
??2GSSharedString@@CAPAXIW4GCPlacement@@@Z
??2GSSharedString@@SAPAXI@Z
??2GSSharedString@@SAPAXIPAX@Z
??2GSSignal@@CAPAXIW4GCPlacement@@@Z
??2GSSignal@@SAPAXI@Z
??2GSSignal@@SAPAXIPAX@Z
??2GSSignalConnectionEntry@@CAPAXIW4GCPlacement@@@Z
??2GSSignalConnectionEntry@@SAPAXI@Z
??2GSSignalConnectionEntry@@SAPAXIPAX@Z
??2GSSpinLock@@CAPAXIW4GCPlacement@@@Z
??2GSSpinLock@@SAPAXI@Z
??2GSSpinLock@@SAPAXIPAX@Z
??2GSState@@CAPAXIW4GCPlacement@@@Z
??2GSState@@SAPAXI@Z
??2GSState@@SAPAXIPAX@Z
??2GSStaticMutex@@SAPAXI@Z
??2GSStaticMutex@@SAPAXIPAX@Z
??2GSStaticMutex@@SAPAXIW4GCPlacement@@@Z
??2GSStringBuilder@@SAPAXI@Z
??2GSStringBuilder@@SAPAXIPAX@Z
??2GSStringBuilder@@SAPAXIW4GCPlacement@@@Z
??2GSStringTable@@SAPAXI@Z
??2GSStringTable@@SAPAXIPAX@Z
??2GSStringTable@@SAPAXIW4GCPlacement@@@Z
??2GSStruct@@CAPAXIW4GCPlacement@@@Z
??2GSStruct@@SAPAXI@Z
??2GSStruct@@SAPAXIPAX@Z
??2GSThread@@SAPAXI@Z
??2GSThread@@SAPAXIPAX@Z
??2GSThread@@SAPAXIW4GCPlacement@@@Z
??2GSTransactionMethod@@CAPAXIW4GCPlacement@@@Z
??2GSTransactionMethod@@SAPAXI@Z
??2GSTransactionMethod@@SAPAXIPAX@Z
??2GSType@@CAPAXIW4GCPlacement@@@Z
??2GSType@@SAPAXI@Z
??2GSType@@SAPAXIPAX@Z
??2GSValueSetterGetter@@SAPAXI@Z
??2GSValueSetterGetter@@SAPAXIPAX@Z
??2GSValueSetterGetter@@SAPAXIW4GCPlacement@@@Z
??2GSVariable@@CAPAXIW4GCPlacement@@@Z
??2GSVariable@@SAPAXI@Z
??2GSVariable@@SAPAXIPAX@Z
??2GSVariableCollection@@CAPAXIW4GCPlacement@@@Z
??2GSVariableCollection@@SAPAXI@Z
??2GSVariableCollection@@SAPAXIPAX@Z
??2GSWaitOnJobFinishJobRule@@SAPAXI@Z
??2GSWaitOnJobFinishJobRule@@SAPAXIPAX@Z
??2GSWaitOnJobFinishJobRule@@SAPAXIW4GCPlacement@@@Z
??2GSWaitOnMultiJobsFinishRunRule@@SAPAXI@Z
??2GSWaitOnMultiJobsFinishRunRule@@SAPAXIPAX@Z
??2GSWaitOnMultiJobsFinishRunRule@@SAPAXIW4GCPlacement@@@Z
??2SocketInfo@@CAPAXIW4GCPlacement@@@Z
??2SocketInfo@@SAPAXI@Z
??2SocketInfo@@SAPAXIPAX@Z
??3GSAnnotationInit@@SAXPAX0@Z
??3GSAnnotationInit@@SAXPAX@Z
??3GSAnnotationInit@@SAXPAXW4GCPlacement@@@Z
??3GSAnnotationInitValue@@SAXPAX0@Z
??3GSAnnotationInitValue@@SAXPAX@Z
??3GSAnnotationInitValue@@SAXPAXW4GCPlacement@@@Z
??3GSAspect@@SAXPAX0@Z
??3GSAspect@@SAXPAX@Z
??3GSAspect@@SAXPAXW4GCPlacement@@@Z
??3GSAspectEntry@@SAXPAX0@Z
??3GSAspectEntry@@SAXPAX@Z
??3GSAspectEntry@@SAXPAXW4GCPlacement@@@Z
??3GSAspectEntryHead@@SAXPAX0@Z
??3GSAspectEntryHead@@SAXPAX@Z
??3GSAspectEntryHead@@SAXPAXW4GCPlacement@@@Z
??3GSAspectManager@@SAXPAX0@Z
??3GSAspectManager@@SAXPAX@Z
??3GSAspectManager@@SAXPAXW4GCPlacement@@@Z
??3GSCallSiteRecorder@@SAXPAX0@Z
??3GSCallSiteRecorder@@SAXPAX@Z
??3GSCallSiteRecorder@@SAXPAXW4GCPlacement@@@Z
??3GSClass@@SAXPAX0@Z
??3GSClass@@SAXPAX@Z
??3GSClass@@SAXPAXW4GCPlacement@@@Z
??3GSClassAllocationSite@@SAXPAX0@Z
??3GSClassAllocationSite@@SAXPAX@Z
??3GSClassAllocationSite@@SAXPAXW4GCPlacement@@@Z
??3GSClassReference@@SAXPAX0@Z
??3GSClassReference@@SAXPAX@Z
??3GSClassReference@@SAXPAXW4GCPlacement@@@Z
??3GSEnum@@SAXPAX0@Z
??3GSEnum@@SAXPAX@Z
??3GSEnum@@SAXPAXW4GCPlacement@@@Z
??3GSEnumValue@@SAXPAX0@Z
??3GSEnumValue@@SAXPAX@Z
??3GSEnumValue@@SAXPAXW4GCPlacement@@@Z
??3GSExceptionContext@@SAXPAX0@Z
??3GSExceptionContext@@SAXPAX@Z
??3GSExceptionContext@@SAXPAXW4GCPlacement@@@Z
??3GSExceptionHandler@@SAXPAX0@Z
??3GSExceptionHandler@@SAXPAX@Z
??3GSExceptionHandler@@SAXPAXW4GCPlacement@@@Z
??3GSExceptionInfo@@SAXPAX0@Z
??3GSExceptionInfo@@SAXPAX@Z
??3GSExceptionInfo@@SAXPAXW4GCPlacement@@@Z
??3GSHandleBase@@SAXPAX0@Z
??3GSHandleBase@@SAXPAX@Z
??3GSHandleBase@@SAXPAXW4GCPlacement@@@Z
??3GSInterpreterExecutionContext@@SAXPAX0@Z
??3GSInterpreterExecutionContext@@SAXPAX@Z
??3GSInterpreterExecutionContext@@SAXPAXW4GCPlacement@@@Z
??3GSMethod@@SAXPAX0@Z
??3GSMethod@@SAXPAX@Z
??3GSMethod@@SAXPAXW4GCPlacement@@@Z
??3GSMethodParameter@@SAXPAX0@Z
??3GSMethodParameter@@SAXPAX@Z
??3GSMethodParameter@@SAXPAXW4GCPlacement@@@Z
??3GSNativeFileCache@@SAXPAX0@Z
??3GSNativeFileCache@@SAXPAX@Z
??3GSNativeFileCache@@SAXPAXW4GCPlacement@@@Z
??3GSObjectBaseInfoTag@@SAXPAX0@Z
??3GSObjectBaseInfoTag@@SAXPAX@Z
??3GSObjectBaseInfoTag@@SAXPAXW4GCPlacement@@@Z
??3GSProxyBase@@SAXPAX0@Z
??3GSProxyBase@@SAXPAX@Z
??3GSProxyBase@@SAXPAXW4GCPlacement@@@Z
??3GSReplication@@SAXPAX0@Z
??3GSReplication@@SAXPAX@Z
??3GSReplication@@SAXPAXW4GCPlacement@@@Z
??3GSSchedulerEntry@@SAXPAX0@Z
??3GSSchedulerEntry@@SAXPAX@Z
??3GSSchedulerEntry@@SAXPAXW4GCPlacement@@@Z
??3GSSchedulerEntryMethodCall@@SAXPAX0@Z
??3GSSchedulerEntryMethodCall@@SAXPAX@Z
??3GSSchedulerEntryMethodCall@@SAXPAXW4GCPlacement@@@Z
??3GSSharedString@@SAXPAX0@Z
??3GSSharedString@@SAXPAX@Z
??3GSSharedString@@SAXPAXW4GCPlacement@@@Z
??3GSSignal@@SAXPAX0@Z
??3GSSignal@@SAXPAX@Z
??3GSSignal@@SAXPAXW4GCPlacement@@@Z
??3GSSignalConnectionEntry@@SAXPAX0@Z
??3GSSignalConnectionEntry@@SAXPAX@Z
??3GSSignalConnectionEntry@@SAXPAXW4GCPlacement@@@Z
??3GSSpinLock@@SAXPAX0@Z
??3GSSpinLock@@SAXPAX@Z
??3GSSpinLock@@SAXPAXW4GCPlacement@@@Z
??3GSState@@SAXPAX0@Z
??3GSState@@SAXPAX@Z
??3GSState@@SAXPAXW4GCPlacement@@@Z
??3GSStruct@@SAXPAX0@Z
??3GSStruct@@SAXPAX@Z
??3GSStruct@@SAXPAXW4GCPlacement@@@Z
??3GSTransactionMethod@@SAXPAX0@Z
??3GSTransactionMethod@@SAXPAX@Z
??3GSTransactionMethod@@SAXPAXW4GCPlacement@@@Z
??3GSType@@SAXPAX0@Z
??3GSType@@SAXPAX@Z
??3GSType@@SAXPAXW4GCPlacement@@@Z
??3GSVariable@@SAXPAX0@Z
??3GSVariable@@SAXPAX@Z
??3GSVariable@@SAXPAXW4GCPlacement@@@Z
??3GSVariableCollection@@SAXPAX0@Z
??3GSVariableCollection@@SAXPAX@Z
??3GSVariableCollection@@SAXPAXW4GCPlacement@@@Z
??3SocketInfo@@SAXPAX0@Z
??3SocketInfo@@SAXPAX@Z
??3SocketInfo@@SAXPAXW4GCPlacement@@@Z
??4?$ArrayImpl@PAUGSVariable@@$00$00$0A@@@QAEAAV0@ABV0@@Z
??4?$GSRootSetObject@U?$GSVector@PAVCppProfileInfo@@@@@@QAEAAU?$GSVector@PAVCppProfileInfo@@@@ABU1@@Z
??4?$GSRootSetObject@U?$GSVector@PAVCppProfileInfo@@@@@@QAEAAV0@ABV0@@Z
??4?$GSVector@PAVCppProfileInfo@@@@QAEAAU0@ABU0@@Z
??4?$GSVector@VGSSharedString@@@@QAEAAU0@ABU0@@Z
??4?$ListImplNode@VGSCallSiteRecorder@@@@QAEAAU0@ABU0@@Z
??4?$ListImplNode@VGSJob@@@@QAEAAU0@ABU0@@Z
??4?$ListImplNode@VGSSuspendableStack@@@@QAEAAU0@ABU0@@Z
??4?$ListImplNode_WithContainingList@VGSSuspendableStack@@@@QAEAAU0@ABU0@@Z
??4?$_Vector_val@PAVCppProfileInfo@@V?$traceable_allocator@PAVCppProfileInfo@@@@@std@@QAEAAV01@ABV01@@Z
??4?$_Vector_val@VGSSharedString@@V?$traceable_allocator@VGSSharedString@@@@@std@@QAEAAV01@ABV01@@Z
??4?$vector@PAVCppProfileInfo@@V?$traceable_allocator@PAVCppProfileInfo@@@@@std@@QAEAAV01@ABV01@@Z
??4?$vector@VGSSharedString@@V?$traceable_allocator@VGSSharedString@@@@@std@@QAEAAV01@ABV01@@Z
??4CppProfileCollection@@QAEAAV0@ABV0@@Z
??4CppProfileInfo@@QAEAAV0@ABV0@@Z
??4CrashCheckPointEntry@@QAEAAU0@ABU0@@Z
??4GSAnnotationInit@@QAEAAU0@ABU0@@Z
??4GSAnnotationInitValue@@QAEAAU0@ABU0@@Z
??4GSAspect@@QAEAAV0@ABV0@@Z
??4GSAspectEntry@@QAEAAV0@ABV0@@Z
??4GSAspectEntryHead@@QAEAAV0@ABV0@@Z
??4GSAspectManager@@QAEAAV0@ABV0@@Z
??4GSAtomicCounter@@QAEAAV0@ABV0@@Z
??4GSBlobBuffer@@QAEAAV0@ABV0@@Z
??4GSBlobBufferFinishedListener@@QAEAAU0@ABU0@@Z
??4GSBlobDecoder@@QAEAAV0@ABV0@@Z
??4GSBlobDecoderListener@@QAEAAV0@ABV0@@Z
??4GSBlobDecoderListenerAdapter@@QAEAAV0@ABV0@@Z
??4GSBlobIOConfigurator@@QAEAAV0@ABV0@@Z
??4GSBlobIOLookup@@QAEAAV0@ABV0@@Z
??4GSBlobReader@@QAEAAV0@ABV0@@Z
??4GSBlobWriter@@QAEAAV0@ABV0@@Z
??4GSBufferWithMissingIdFinisher@@QAEAAU0@ABU0@@Z
??4GSCallSiteRecorder@@QAEAAV0@ABV0@@Z
??4GSClass@@QAEAAU0@ABU0@@Z
??4GSClassAllocationSite@@QAEAAU0@ABU0@@Z
??4GSClassReference@@QAEAAV0@ABV0@@Z
??4GSClassReflectionResolver@@QAEAAU0@ABU0@@Z
??4GSClassStructureWalker@@QAEAAV0@ABV0@@Z
??4GSClassStructureWalkerListener@@QAEAAV0@ABV0@@Z
??4GSEnum@@QAEAAU0@ABU0@@Z
??4GSEnumValue@@QAEAAU0@ABU0@@Z
??4GSExceptionCleanupHelper@@QAEAAU0@ABU0@@Z
??4GSExceptionContext@@QAEAAU0@ABU0@@Z
??4GSExceptionHandler@@QAEAAU0@ABU0@@Z
??4GSExceptionInfo@@QAEAAU0@ABU0@@Z
??4GSFileAdapter@@QAEAAV0@ABV0@@Z
??4GSFileArchive@@QAEAAV0@ABV0@@Z
??4GSFileArchiveBuilder@@QAEAAV0@ABV0@@Z
??4GSFileDb@@QAEAAV0@ABV0@@Z
??4GSFileLocator@@QAEAAV0@ABV0@@Z
??4GSFileWin32@@QAEAAV0@ABV0@@Z
??4GSHandleBase@@QAEAAV0@ABV0@@Z
??4GSHandleResolver@@QAEAAV0@ABV0@@Z
??4GSHotCodeReplacer@@QAEAAV0@ABV0@@Z
??4GSInternalSelfTests@@QAEAAV0@ABV0@@Z
??4GSInterpreter@@QAEAAV0@ABV0@@Z
??4GSInterpreterExecutionContext@@QAEAAU0@ABU0@@Z
??4GSJITCompiler@@QAEAAV0@ABV0@@Z
??4GSJob@@QAEAAV0@ABV0@@Z
??4GSJobRunRule@@QAEAAU0@ABU0@@Z
??4GSJobRunRuleComposite@@QAEAAU0@ABU0@@Z
??4GSJobScheduler@@QAEAAV0@ABV0@@Z
??4GSJournal@@QAEAAU0@ABU0@@Z
??4GSJournalControl@@QAEAAU0@ABU0@@Z
??4GSJournalingFileIOStream@@QAEAAV0@ABV0@@Z
??4GSLibraryLoader@@QAEAAV0@ABV0@@Z
??4GSMappedFile@@QAEAAV0@ABV0@@Z
??4GSMethod@@QAEAAU0@ABU0@@Z
??4GSMethodParameter@@QAEAAU0@ABU0@@Z
??4GSMutex@@QAEAAV0@ABV0@@Z
??4GSMutexGC@@QAEAAV0@ABV0@@Z
??4GSNativeCachedFileAutoLoc@@QAEAAU0@ABU0@@Z
??4GSNativeCachedFileBase@@QAEAAV0@ABV0@@Z
??4GSNativeFile@@QAEAAV0@ABV0@@Z
??4GSObjectBase@@QAEAAU0@ABU0@@Z
??4GSObjectBaseInfoTag@@QAEAAU0@ABU0@@Z
??4GSPoolAllocator@@QAEAAV0@ABV0@@Z
??4GSProxyBase@@QAEAAV0@ABV0@@Z
??4GSReadWriteLock@@QAEAAV0@ABV0@@Z
??4GSRegExp@@QAEAAV0@ABV0@@Z
??4GSReplication@@QAEAAU0@ABU0@@Z
??4GSScheduleEntryFilter@@QAEAAU0@ABU0@@Z
??4GSScheduler@@QAEAAV0@AAV0@@Z
??4GSSchedulerEntry@@QAEAAU0@ABU0@@Z
??4GSSchedulerEntryList@@QAEXAAV0@@Z
??4GSSchedulerEntryMethodCall@@QAEAAV0@ABV0@@Z
??4GSSchedulerStatisticEntry@@QAEAAU0@ABU0@@Z
??4GSSemaphore@@QAEAAV0@ABV0@@Z
??4GSSharedSemaphore@@QAEAAV0@ABV0@@Z
??4GSSharedSemaphoreRecursive@@QAEAAU0@ABU0@@Z
??4GSSharedString@@QAEAAV0@ABV0@@Z
??4GSSharedString@@QAEAAV0@ABV?$basic_string@DU?$char_traits@D@std@@V?$stringpool_allocator@D@@@std@@@Z
??4GSSharedString@@QAEAAV0@PBD@Z
??4GSSignal@@QAEAAU0@ABU0@@Z
??4GSSignalConnectionEntry@@QAEAAU0@ABU0@@Z
??4GSSpinLock@@QAEAAV0@ABV0@@Z
??4GSSpinLockRecursive@@QAEAAV0@ABV0@@Z
??4GSState@@QAEAAU0@ABU0@@Z
??4GSStaticMutex@@QAEAAV0@ABV0@@Z
??4GSStaticPointerBase@@QAEAAV0@ABV0@@Z
??4GSStringBuilder@@AAEXABV0@@Z
??4GSStringList@@QAEAAU0@ABU0@@Z
??4GSStringList@@QAEAAU0@PAPBD@Z
??4GSStringTable@@QAEAAU0@ABU0@@Z
??4GSStringTableFS@@QAEAAV0@ABV0@@Z
??4GSStringTableNetwork@@QAEAAV0@ABV0@@Z
??4GSStringUtils@@QAEAAV0@ABV0@@Z
??4GSStruct@@QAEAAU0@ABU0@@Z
??4GSSuspendableStack@@QAEAAV0@ABV0@@Z
??4GSThread@@QAEAAU0@ABU0@@Z
??4GSTransactionMethod@@QAEAAU0@ABU0@@Z
??4GSTransactionMonitor@@QAEAAU0@ABU0@@Z
??4GSType@@QAEAAU0@ABU0@@Z
??4GSTypedGCObjectAllocator@@QAEAAV0@ABV0@@Z
??4GSTypedGCObjectDescriptionBuilder@@QAEAAV0@ABV0@@Z
??4GSTypedGCRelativeDescriptionBuilder@@QAEAAV0@ABV0@@Z
??4GSValueSetterGetter@@QAEAAV0@ABV0@@Z
??4GSVariable@@QAEAAU0@ABU0@@Z
??4GSVariableCollection@@QAEAAV0@ABV0@@Z
??4GSWaitOnJobFinishJobRule@@QAEAAV0@ABV0@@Z
??4GSWaitOnMultiJobsFinishRunRule@@QAEAAV0@ABV0@@Z
??4IGSFile@@QAEAAU0@ABU0@@Z
??4RSACrypt@Crypt@@QAEAAV01@ABV01@@Z
??4SocketInfo@@QAEAAU0@ABU0@@Z
??8GSSharedString@@QBE_NABV0@@Z
??8GSSharedString@@QBE_NABV?$basic_string@DU?$char_traits@D@std@@V?$stringpool_allocator@D@@@std@@@Z
??8GSSharedString@@QBE_NPBD@Z
??9GSSharedString@@QBE_NABV0@@Z
??9GSSharedString@@QBE_NABV?$basic_string@DU?$char_traits@D@std@@V?$stringpool_allocator@D@@@std@@@Z
??9GSSharedString@@QBE_NPBD@Z
??A?$ArrayImpl@PAUGSVariable@@$00$00$0A@@@QBEAAPAUGSVariable@@I@Z
??A?$vector@PAVCppProfileInfo@@V?$traceable_allocator@PAVCppProfileInfo@@@@@std@@QAEAAPAVCppProfileInfo@@I@Z
??A?$vector@PAVCppProfileInfo@@V?$traceable_allocator@PAVCppProfileInfo@@@@@std@@QBEABQAVCppProfileInfo@@I@Z
??A?$vector@VGSSharedString@@V?$traceable_allocator@VGSSharedString@@@@@std@@QAEAAVGSSharedString@@I@Z
??A?$vector@VGSSharedString@@V?$traceable_allocator@VGSSharedString@@@@@std@@QBEABVGSSharedString@@I@Z
??BGSAtomicCounter@@QAEHXZ
??BGSSharedString@@QBE?AV?$basic_string@DU?$char_traits@D@std@@V?$stringpool_allocator@D@@@std@@XZ
??BGSSharedString@@QBEPBDXZ
??C?$GSRootSetObject@U?$GSVector@PAVCppProfileInfo@@@@@@QAEAAU?$GSVector@PAVCppProfileInfo@@@@XZ
??EGSAtomicCounter@@QAEXH@Z
??EGSAtomicCounter@@QAEXXZ
??FGSAtomicCounter@@QAEXH@Z
??FGSAtomicCounter@@QAEXXZ
??MGSSharedString@@QBE_NABV?$basic_string@DU?$char_traits@D@std@@V?$stringpool_allocator@D@@@std@@@Z
??OGSSharedString@@QBE_NABV?$basic_string@DU?$char_traits@D@std@@V?$stringpool_allocator@D@@@std@@@Z
??_7GSAspect@@6B@
??_7GSBlobBufferFinishedListener@@6B@
??_7GSBlobDecoderListener@@6B@
??_7GSBlobDecoderListenerAdapter@@6B@
??_7GSBlobIOLookup@@6B@
??_7GSBufferWithMissingIdFinisher@@6B@
??_7GSClassReflectionResolver@@6B@
??_7GSClassStructureWalkerListener@@6B@
??_7GSFileAdapter@@6B@
??_7GSFileIOStream@@6B@
??_7GSFileWin32@@6B@
??_7GSHandleResolver@@6B@
??_7GSJob@@6B@
??_7GSJobRunRule@@6B@
??_7GSJobRunRuleComposite@@6B@
??_7GSJournal@@6B@
??_7GSJournalingFileIOStream@@6B@
??_7GSMutexGC@@6B@
??_7GSNativeCachedFileAutoLoc@@6B@
??_7GSNativeCachedFileBase@@6B@
??_7GSNativeFile@@6B@
??_7GSObjectBaseInfoTag@@6B@
??_7GSScheduleEntryFilter@@6B@
??_7GSSchedulerEntry@@6B@
??_7GSSchedulerEntryMethodCall@@6BGSObjectBaseInfoTag@@@
??_7GSSchedulerEntryMethodCall@@6BGSSchedulerEntry@@@
??_7GSStringTable@@6B@
??_7GSStringTableFS@@6B@
??_7GSStringTableNetwork@@6B@
??_7GSTransactionMonitor@@6B@
??_7GSTypedGCObjectAllocator@@6B@
??_7GSWaitOnJobFinishJobRule@@6B@
??_7GSWaitOnMultiJobsFinishRunRule@@6B@
??_7IGSFile@@6B@
??_8GSInterpreter@@7B@
??_8GSJITCompiler@@7B@
??_8GSMutexGC@@7B@
??_F?$_Vector_val@PAVCppProfileInfo@@V?$traceable_allocator@PAVCppProfileInfo@@@@@std@@QAEXXZ
??_F?$_Vector_val@VGSSharedString@@V?$traceable_allocator@VGSSharedString@@@@@std@@QAEXXZ
??_FGSPoolAllocator@@QAEXXZ
??_UGSAnnotationInit@@SAPAXI@Z
??_UGSAnnotationInit@@SAPAXIPAX@Z
??_UGSAnnotationInit@@SAPAXIW4GCPlacement@@@Z
??_UGSAnnotationInitValue@@SAPAXI@Z
??_UGSAnnotationInitValue@@SAPAXIPAX@Z
??_UGSAnnotationInitValue@@SAPAXIW4GCPlacement@@@Z
??_UGSAspect@@SAPAXI@Z
??_UGSAspect@@SAPAXIPAX@Z
??_UGSAspect@@SAPAXIW4GCPlacement@@@Z
??_UGSAspectEntry@@SAPAXI@Z
??_UGSAspectEntry@@SAPAXIPAX@Z
??_UGSAspectEntry@@SAPAXIW4GCPlacement@@@Z
??_UGSAspectEntryHead@@SAPAXI@Z
??_UGSAspectEntryHead@@SAPAXIPAX@Z
??_UGSAspectEntryHead@@SAPAXIW4GCPlacement@@@Z
??_UGSAspectManager@@SAPAXI@Z
??_UGSAspectManager@@SAPAXIPAX@Z
??_UGSAspectManager@@SAPAXIW4GCPlacement@@@Z
??_UGSCallSiteRecorder@@SAPAXI@Z
??_UGSCallSiteRecorder@@SAPAXIPAX@Z
??_UGSCallSiteRecorder@@SAPAXIW4GCPlacement@@@Z
??_UGSClass@@SAPAXI@Z
??_UGSClass@@SAPAXIPAX@Z
??_UGSClass@@SAPAXIW4GCPlacement@@@Z
??_UGSClassAllocationSite@@SAPAXI@Z
??_UGSClassAllocationSite@@SAPAXIPAX@Z
??_UGSClassAllocationSite@@SAPAXIW4GCPlacement@@@Z
??_UGSClassReference@@SAPAXI@Z
??_UGSClassReference@@SAPAXIPAX@Z
??_UGSClassReference@@SAPAXIW4GCPlacement@@@Z
??_UGSEnum@@SAPAXI@Z
??_UGSEnum@@SAPAXIPAX@Z
??_UGSEnum@@SAPAXIW4GCPlacement@@@Z
??_UGSEnumValue@@SAPAXI@Z
??_UGSEnumValue@@SAPAXIPAX@Z
??_UGSEnumValue@@SAPAXIW4GCPlacement@@@Z
??_UGSExceptionContext@@SAPAXI@Z
??_UGSExceptionContext@@SAPAXIPAX@Z
??_UGSExceptionContext@@SAPAXIW4GCPlacement@@@Z
??_UGSExceptionHandler@@SAPAXI@Z
??_UGSExceptionHandler@@SAPAXIPAX@Z
??_UGSExceptionHandler@@SAPAXIW4GCPlacement@@@Z
??_UGSExceptionInfo@@SAPAXI@Z
??_UGSExceptionInfo@@SAPAXIPAX@Z
??_UGSExceptionInfo@@SAPAXIW4GCPlacement@@@Z
??_UGSHandleBase@@SAPAXI@Z
??_UGSHandleBase@@SAPAXIPAX@Z
??_UGSHandleBase@@SAPAXIW4GCPlacement@@@Z
??_UGSInterpreterExecutionContext@@SAPAXI@Z
??_UGSInterpreterExecutionContext@@SAPAXIPAX@Z
??_UGSInterpreterExecutionContext@@SAPAXIW4GCPlacement@@@Z
??_UGSMethod@@SAPAXI@Z
??_UGSMethod@@SAPAXIPAX@Z
??_UGSMethod@@SAPAXIW4GCPlacement@@@Z
??_UGSMethodParameter@@SAPAXI@Z
??_UGSMethodParameter@@SAPAXIPAX@Z
??_UGSMethodParameter@@SAPAXIW4GCPlacement@@@Z
??_UGSNativeFileCache@@SAPAXI@Z
??_UGSNativeFileCache@@SAPAXIPAX@Z
??_UGSNativeFileCache@@SAPAXIW4GCPlacement@@@Z
??_UGSObjectBaseInfoTag@@SAPAXI@Z
??_UGSObjectBaseInfoTag@@SAPAXIPAX@Z
??_UGSObjectBaseInfoTag@@SAPAXIW4GCPlacement@@@Z
??_UGSProxyBase@@SAPAXI@Z
??_UGSProxyBase@@SAPAXIPAX@Z
??_UGSProxyBase@@SAPAXIW4GCPlacement@@@Z
??_UGSReplication@@SAPAXI@Z
??_UGSReplication@@SAPAXIPAX@Z
??_UGSReplication@@SAPAXIW4GCPlacement@@@Z
??_UGSSchedulerEntry@@SAPAXI@Z
??_UGSSchedulerEntry@@SAPAXIPAX@Z
??_UGSSchedulerEntry@@SAPAXIW4GCPlacement@@@Z
??_UGSSchedulerEntryMethodCall@@SAPAXI@Z
??_UGSSchedulerEntryMethodCall@@SAPAXIPAX@Z
??_UGSSchedulerEntryMethodCall@@SAPAXIW4GCPlacement@@@Z
??_UGSSharedString@@SAPAXI@Z
??_UGSSharedString@@SAPAXIPAX@Z
??_UGSSharedString@@SAPAXIW4GCPlacement@@@Z
??_UGSSignal@@SAPAXI@Z
??_UGSSignal@@SAPAXIPAX@Z
??_UGSSignal@@SAPAXIW4GCPlacement@@@Z
??_UGSSignalConnectionEntry@@SAPAXI@Z
??_UGSSignalConnectionEntry@@SAPAXIPAX@Z
??_UGSSignalConnectionEntry@@SAPAXIW4GCPlacement@@@Z
??_UGSSpinLock@@SAPAXI@Z
??_UGSSpinLock@@SAPAXIPAX@Z
??_UGSSpinLock@@SAPAXIW4GCPlacement@@@Z
??_UGSState@@SAPAXI@Z
??_UGSState@@SAPAXIPAX@Z
??_UGSState@@SAPAXIW4GCPlacement@@@Z
??_UGSStruct@@SAPAXI@Z
??_UGSStruct@@SAPAXIPAX@Z
??_UGSStruct@@SAPAXIW4GCPlacement@@@Z
??_UGSTransactionMethod@@SAPAXI@Z
??_UGSTransactionMethod@@SAPAXIPAX@Z
??_UGSTransactionMethod@@SAPAXIW4GCPlacement@@@Z
??_UGSType@@SAPAXI@Z
??_UGSType@@SAPAXIPAX@Z
??_UGSType@@SAPAXIW4GCPlacement@@@Z
??_UGSVariable@@SAPAXI@Z
??_UGSVariable@@SAPAXIPAX@Z
??_UGSVariable@@SAPAXIW4GCPlacement@@@Z
??_UGSVariableCollection@@SAPAXI@Z
??_UGSVariableCollection@@SAPAXIPAX@Z
??_UGSVariableCollection@@SAPAXIW4GCPlacement@@@Z
??_USocketInfo@@SAPAXI@Z
??_USocketInfo@@SAPAXIPAX@Z
??_USocketInfo@@SAPAXIW4GCPlacement@@@Z
??_VGSAnnotationInit@@SAXPAX0@Z
??_VGSAnnotationInit@@SAXPAX@Z
??_VGSAnnotationInit@@SAXPAXW4GCPlacement@@@Z
??_VGSAnnotationInitValue@@SAXPAX0@Z
??_VGSAnnotationInitValue@@SAXPAX@Z
??_VGSAnnotationInitValue@@SAXPAXW4GCPlacement@@@Z
??_VGSAspect@@SAXPAX0@Z
??_VGSAspect@@SAXPAX@Z
??_VGSAspect@@SAXPAXW4GCPlacement@@@Z
??_VGSAspectEntry@@SAXPAX0@Z
??_VGSAspectEntry@@SAXPAX@Z
??_VGSAspectEntry@@SAXPAXW4GCPlacement@@@Z
??_VGSAspectEntryHead@@SAXPAX0@Z
??_VGSAspectEntryHead@@SAXPAX@Z
??_VGSAspectEntryHead@@SAXPAXW4GCPlacement@@@Z
??_VGSAspectManager@@SAXPAX0@Z
??_VGSAspectManager@@SAXPAX@Z
??_VGSAspectManager@@SAXPAXW4GCPlacement@@@Z
??_VGSCallSiteRecorder@@SAXPAX0@Z
??_VGSCallSiteRecorder@@SAXPAX@Z
??_VGSCallSiteRecorder@@SAXPAXW4GCPlacement@@@Z
??_VGSClass@@SAXPAX0@Z
??_VGSClass@@SAXPAX@Z
??_VGSClass@@SAXPAXW4GCPlacement@@@Z
??_VGSClassAllocationSite@@SAXPAX0@Z
??_VGSClassAllocationSite@@SAXPAX@Z
??_VGSClassAllocationSite@@SAXPAXW4GCPlacement@@@Z
??_VGSClassReference@@SAXPAX0@Z
??_VGSClassReference@@SAXPAX@Z
??_VGSClassReference@@SAXPAXW4GCPlacement@@@Z
??_VGSEnum@@SAXPAX0@Z
??_VGSEnum@@SAXPAX@Z
??_VGSEnum@@SAXPAXW4GCPlacement@@@Z
??_VGSEnumValue@@SAXPAX0@Z
??_VGSEnumValue@@SAXPAX@Z
??_VGSEnumValue@@SAXPAXW4GCPlacement@@@Z
??_VGSExceptionContext@@SAXPAX0@Z
??_VGSExceptionContext@@SAXPAX@Z
??_VGSExceptionContext@@SAXPAXW4GCPlacement@@@Z
??_VGSExceptionHandler@@SAXPAX0@Z
??_VGSExceptionHandler@@SAXPAX@Z
??_VGSExceptionHandler@@SAXPAXW4GCPlacement@@@Z
??_VGSExceptionInfo@@SAXPAX0@Z
??_VGSExceptionInfo@@SAXPAX@Z
??_VGSExceptionInfo@@SAXPAXW4GCPlacement@@@Z
??_VGSHandleBase@@SAXPAX0@Z
??_VGSHandleBase@@SAXPAX@Z
??_VGSHandleBase@@SAXPAXW4GCPlacement@@@Z
??_VGSInterpreterExecutionContext@@SAXPAX0@Z
??_VGSInterpreterExecutionContext@@SAXPAX@Z
??_VGSInterpreterExecutionContext@@SAXPAXW4GCPlacement@@@Z
??_VGSMethod@@SAXPAX0@Z
??_VGSMethod@@SAXPAX@Z
??_VGSMethod@@SAXPAXW4GCPlacement@@@Z
??_VGSMethodParameter@@SAXPAX0@Z
??_VGSMethodParameter@@SAXPAX@Z
??_VGSMethodParameter@@SAXPAXW4GCPlacement@@@Z
??_VGSNativeFileCache@@SAXPAX0@Z
??_VGSNativeFileCache@@SAXPAX@Z
??_VGSNativeFileCache@@SAXPAXW4GCPlacement@@@Z
??_VGSObjectBaseInfoTag@@SAXPAX0@Z
??_VGSObjectBaseInfoTag@@SAXPAX@Z
??_VGSObjectBaseInfoTag@@SAXPAXW4GCPlacement@@@Z
??_VGSProxyBase@@SAXPAX0@Z
??_VGSProxyBase@@SAXPAX@Z
??_VGSProxyBase@@SAXPAXW4GCPlacement@@@Z
??_VGSReplication@@SAXPAX0@Z
??_VGSReplication@@SAXPAX@Z
??_VGSReplication@@SAXPAXW4GCPlacement@@@Z
??_VGSSchedulerEntry@@SAXPAX0@Z
??_VGSSchedulerEntry@@SAXPAX@Z
??_VGSSchedulerEntry@@SAXPAXW4GCPlacement@@@Z
??_VGSSchedulerEntryMethodCall@@SAXPAX0@Z
??_VGSSchedulerEntryMethodCall@@SAXPAX@Z
??_VGSSchedulerEntryMethodCall@@SAXPAXW4GCPlacement@@@Z
??_VGSSharedString@@SAXPAX0@Z
??_VGSSharedString@@SAXPAX@Z
??_VGSSharedString@@SAXPAXW4GCPlacement@@@Z
??_VGSSignal@@SAXPAX0@Z
??_VGSSignal@@SAXPAX@Z
??_VGSSignal@@SAXPAXW4GCPlacement@@@Z
??_VGSSignalConnectionEntry@@SAXPAX0@Z
??_VGSSignalConnectionEntry@@SAXPAX@Z
??_VGSSignalConnectionEntry@@SAXPAXW4GCPlacement@@@Z
??_VGSSpinLock@@SAXPAX0@Z
??_VGSSpinLock@@SAXPAX@Z
??_VGSSpinLock@@SAXPAXW4GCPlacement@@@Z
??_VGSState@@SAXPAX0@Z
??_VGSState@@SAXPAX@Z
??_VGSState@@SAXPAXW4GCPlacement@@@Z
??_VGSStruct@@SAXPAX0@Z
??_VGSStruct@@SAXPAX@Z
??_VGSStruct@@SAXPAXW4GCPlacement@@@Z
??_VGSTransactionMethod@@SAXPAX0@Z
??_VGSTransactionMethod@@SAXPAX@Z
??_VGSTransactionMethod@@SAXPAXW4GCPlacement@@@Z
??_VGSType@@SAXPAX0@Z
??_VGSType@@SAXPAX@Z
??_VGSType@@SAXPAXW4GCPlacement@@@Z
??_VGSVariable@@SAXPAX0@Z
??_VGSVariable@@SAXPAX@Z
??_VGSVariable@@SAXPAXW4GCPlacement@@@Z
??_VGSVariableCollection@@SAXPAX0@Z
??_VGSVariableCollection@@SAXPAX@Z
??_VGSVariableCollection@@SAXPAXW4GCPlacement@@@Z
??_VSocketInfo@@SAXPAX0@Z
??_VSocketInfo@@SAXPAX@Z
??_VSocketInfo@@SAXPAXW4GCPlacement@@@Z
?ConvertUTF16toUTF32@@YA?AW4ConversionResult@@PAPBGPBGPAPAKPAKW4ConversionFlags@@@Z
?ConvertUTF16toUTF8@@YA?AW4ConversionResult@@PAPBGPBGPAPAEPAEW4ConversionFlags@@@Z
?ConvertUTF32toUTF8@@YA?AW4ConversionResult@@PAPBKPBKPAPAEPAEW4ConversionFlags@@@Z
?ConvertUTF8toUTF16@@YA?AW4ConversionResult@@PAPBEPBEPAPAGPAGW4ConversionFlags@@@Z
?ConvertUTF8toUTF32@@YA?AW4ConversionResult@@PAPBEPBEPAPAKPAKW4ConversionFlags@@@Z
?ReInitCrashHandler@@YAXXZ
?_Assign_n@?$vector@PAVCppProfileInfo@@V?$traceable_allocator@PAVCppProfileInfo@@@@@std@@IAEXIABQAVCppProfileInfo@@@Z
?_Assign_n@?$vector@VGSSharedString@@V?$traceable_allocator@VGSSharedString@@@@@std@@IAEXIABVGSSharedString@@@Z
?_Buy@?$vector@PAVCppProfileInfo@@V?$traceable_allocator@PAVCppProfileInfo@@@@@std@@IAE_NI@Z
?_Buy@?$vector@VGSSharedString@@V?$traceable_allocator@VGSSharedString@@@@@std@@IAE_NI@Z
?_Construct_n@?$vector@PAVCppProfileInfo@@V?$traceable_allocator@PAVCppProfileInfo@@@@@std@@QAEXIABQAVCppProfileInfo@@@Z
?_Construct_n@?$vector@VGSSharedString@@V?$traceable_allocator@VGSSharedString@@@@@std@@QAEXIABVGSSharedString@@@Z
?_Destroy@?$vector@PAVCppProfileInfo@@V?$traceable_allocator@PAVCppProfileInfo@@@@@std@@IAEXPAPAVCppProfileInfo@@0@Z
?_Destroy@?$vector@VGSSharedString@@V?$traceable_allocator@VGSSharedString@@@@@std@@IAEXPAVGSSharedString@@0@Z
?_Insert_n@?$vector@PAVCppProfileInfo@@V?$traceable_allocator@PAVCppProfileInfo@@@@@std@@IAEXV?$_Vector_iterator@PAVCppProfileInfo@@V?$traceable_allocator@PAVCppProfileInfo@@@@@2@IABQAVCppProfileInfo@@@Z
?_Insert_n@?$vector@VGSSharedString@@V?$traceable_allocator@VGSSharedString@@@@@std@@IAEXV?$_Vector_iterator@VGSSharedString@@V?$traceable_allocator@VGSSharedString@@@@@2@IABVGSSharedString@@@Z
?_Tidy@?$vector@PAVCppProfileInfo@@V?$traceable_allocator@PAVCppProfileInfo@@@@@std@@IAEXXZ
?_Tidy@?$vector@VGSSharedString@@V?$traceable_allocator@VGSSharedString@@@@@std@@IAEXXZ
?_Ufill@?$vector@PAVCppProfileInfo@@V?$traceable_allocator@PAVCppProfileInfo@@@@@std@@IAEPAPAVCppProfileInfo@@PAPAV3@IABQAV3@@Z
?_Ufill@?$vector@VGSSharedString@@V?$traceable_allocator@VGSSharedString@@@@@std@@IAEPAVGSSharedString@@PAV3@IABV3@@Z
?_Xinvarg@?$vector@PAVCppProfileInfo@@V?$traceable_allocator@PAVCppProfileInfo@@@@@std@@KAXXZ
?_Xinvarg@?$vector@VGSSharedString@@V?$traceable_allocator@VGSSharedString@@@@@std@@KAXXZ
?_Xlen@?$vector@PAVCppProfileInfo@@V?$traceable_allocator@PAVCppProfileInfo@@@@@std@@KAXXZ
?_Xlen@?$vector@VGSSharedString@@V?$traceable_allocator@VGSSharedString@@@@@std@@KAXXZ
?_Xran@?$vector@PAVCppProfileInfo@@V?$traceable_allocator@PAVCppProfileInfo@@@@@std@@KAXXZ
?_Xran@?$vector@VGSSharedString@@V?$traceable_allocator@VGSSharedString@@@@@std@@KAXXZ
?__gsStartThread@@YAPAUGSThread@@P6AHPAX@Z0PBD@Z
?__gsThrowException@@YAXPBDZZ
?__gsThrowException_SetInfos@@YAXPBD0HPAUGSExceptionInfo@@@Z
?_buildLocalTypeDescription@?$ArrayImpl@PAUGSVariable@@$00$00$0A@@@SAXAAVGSTypedGCRelativeDescriptionBuilder@@@Z
?_buildLocalTypeDescription@?$GSRootSetObject@U?$GSVector@PAVCppProfileInfo@@@@@@CAXAAVGSTypedGCRelativeDescriptionBuilder@@@Z
?_buildLocalTypeDescription@?$ListImplNode@VGSCallSiteRecorder@@@@SAXAAVGSTypedGCRelativeDescriptionBuilder@@@Z
?_buildLocalTypeDescription@?$ListImplNode@VGSJob@@@@SAXAAVGSTypedGCRelativeDescriptionBuilder@@@Z
?_buildLocalTypeDescription@?$ListImplNode@VGSSuspendableStack@@@@SAXAAVGSTypedGCRelativeDescriptionBuilder@@@Z
?_buildLocalTypeDescription@?$ListImplNode_WithContainingList@VGSSuspendableStack@@@@SAXAAVGSTypedGCRelativeDescriptionBuilder@@@Z
?_buildLocalTypeDescription@GSAnnotationInit@@SAXAAVGSTypedGCRelativeDescriptionBuilder@@@Z
?_buildLocalTypeDescription@GSAnnotationInitValue@@SAXAAVGSTypedGCRelativeDescriptionBuilder@@@Z
?_buildLocalTypeDescription@GSAspect@@SAXAAVGSTypedGCRelativeDescriptionBuilder@@@Z
?_buildLocalTypeDescription@GSAspectEntry@@SAXAAVGSTypedGCRelativeDescriptionBuilder@@@Z
?_buildLocalTypeDescription@GSAspectEntryHead@@SAXAAVGSTypedGCRelativeDescriptionBuilder@@@Z
?_buildLocalTypeDescription@GSAspectManager@@SAXAAVGSTypedGCRelativeDescriptionBuilder@@@Z
?_buildLocalTypeDescription@GSCallSiteRecorder@@SAXAAVGSTypedGCRelativeDescriptionBuilder@@@Z
?_buildLocalTypeDescription@GSClass@@SAXAAVGSTypedGCRelativeDescriptionBuilder@@@Z
?_buildLocalTypeDescription@GSClassAllocationSite@@SAXAAVGSTypedGCRelativeDescriptionBuilder@@@Z
?_buildLocalTypeDescription@GSClassReference@@SAXAAVGSTypedGCRelativeDescriptionBuilder@@@Z
?_buildLocalTypeDescription@GSEnum@@SAXAAVGSTypedGCRelativeDescriptionBuilder@@@Z
?_buildLocalTypeDescription@GSEnumValue@@SAXAAVGSTypedGCRelativeDescriptionBuilder@@@Z
?_buildLocalTypeDescription@GSExceptionContext@@SAXAAVGSTypedGCRelativeDescriptionBuilder@@@Z
?_buildLocalTypeDescription@GSExceptionHandler@@SAXAAVGSTypedGCRelativeDescriptionBuilder@@@Z
?_buildLocalTypeDescription@GSExceptionInfo@@SAXAAVGSTypedGCRelativeDescriptionBuilder@@@Z
?_buildLocalTypeDescription@GSHandleBase@@SAXAAVGSTypedGCRelativeDescriptionBuilder@@@Z
?_buildLocalTypeDescription@GSInterpreterExecutionContext@@SAXAAVGSTypedGCRelativeDescriptionBuilder@@@Z
?_buildLocalTypeDescription@GSMethod@@SAXAAVGSTypedGCRelativeDescriptionBuilder@@@Z
?_buildLocalTypeDescription@GSMethodParameter@@SAXAAVGSTypedGCRelativeDescriptionBuilder@@@Z
?_buildLocalTypeDescription@GSNativeFileCache@@SAXAAVGSTypedGCRelativeDescriptionBuilder@@@Z
?_buildLocalTypeDescription@GSObjectBaseInfoTag@@SAXAAVGSTypedGCRelativeDescriptionBuilder@@@Z
?_buildLocalTypeDescription@GSProxyBase@@SAXAAVGSTypedGCRelativeDescriptionBuilder@@@Z
?_buildLocalTypeDescription@GSReplication@@SAXAAVGSTypedGCRelativeDescriptionBuilder@@@Z
?_buildLocalTypeDescription@GSSchedulerEntry@@SAXAAVGSTypedGCRelativeDescriptionBuilder@@@Z
?_buildLocalTypeDescription@GSSchedulerEntryMethodCall@@SAXAAVGSTypedGCRelativeDescriptionBuilder@@@Z
?_buildLocalTypeDescription@GSSharedString@@SAXAAVGSTypedGCRelativeDescriptionBuilder@@@Z
?_buildLocalTypeDescription@GSSignal@@SAXAAVGSTypedGCRelativeDescriptionBuilder@@@Z
?_buildLocalTypeDescription@GSSignalConnectionEntry@@SAXAAVGSTypedGCRelativeDescriptionBuilder@@@Z
?_buildLocalTypeDescription@GSSpinLock@@SAXAAVGSTypedGCRelativeDescriptionBuilder@@@Z
?_buildLocalTypeDescription@GSState@@SAXAAVGSTypedGCRelativeDescriptionBuilder@@@Z
?_buildLocalTypeDescription@GSStruct@@SAXAAVGSTypedGCRelativeDescriptionBuilder@@@Z
?_buildLocalTypeDescription@GSTransactionMethod@@SAXAAVGSTypedGCRelativeDescriptionBuilder@@@Z
?_buildLocalTypeDescription@GSType@@SAXAAVGSTypedGCRelativeDescriptionBuilder@@@Z
?_buildLocalTypeDescription@GSVariable@@SAXAAVGSTypedGCRelativeDescriptionBuilder@@@Z
?_buildLocalTypeDescription@GSVariableCollection@@SAXAAVGSTypedGCRelativeDescriptionBuilder@@@Z
?_buildLocalTypeDescription@SocketInfo@@SAXAAVGSTypedGCRelativeDescriptionBuilder@@@Z
?_buildTypedAllocator@GSAnnotationInit@@CAPAVGSTypedGCObjectAllocator@@XZ
?_buildTypedAllocator@GSAnnotationInitValue@@CAPAVGSTypedGCObjectAllocator@@XZ
?_buildTypedAllocator@GSAspect@@CAPAVGSTypedGCObjectAllocator@@XZ
?_buildTypedAllocator@GSAspectEntry@@CAPAVGSTypedGCObjectAllocator@@XZ
?_buildTypedAllocator@GSAspectEntryHead@@CAPAVGSTypedGCObjectAllocator@@XZ
?_buildTypedAllocator@GSAspectManager@@CAPAVGSTypedGCObjectAllocator@@XZ
?_buildTypedAllocator@GSCallSiteRecorder@@CAPAVGSTypedGCObjectAllocator@@XZ
?_buildTypedAllocator@GSClass@@CAPAVGSTypedGCObjectAllocator@@XZ
?_buildTypedAllocator@GSClassAllocationSite@@CAPAVGSTypedGCObjectAllocator@@XZ
?_buildTypedAllocator@GSClassReference@@CAPAVGSTypedGCObjectAllocator@@XZ
?_buildTypedAllocator@GSEnum@@CAPAVGSTypedGCObjectAllocator@@XZ
?_buildTypedAllocator@GSEnumValue@@CAPAVGSTypedGCObjectAllocator@@XZ
?_buildTypedAllocator@GSExceptionContext@@CAPAVGSTypedGCObjectAllocator@@XZ
?_buildTypedAllocator@GSExceptionHandler@@CAPAVGSTypedGCObjectAllocator@@XZ
?_buildTypedAllocator@GSExceptionInfo@@CAPAVGSTypedGCObjectAllocator@@XZ
?_buildTypedAllocator@GSHandleBase@@CAPAVGSTypedGCObjectAllocator@@XZ
?_buildTypedAllocator@GSInterpreterExecutionContext@@CAPAVGSTypedGCObjectAllocator@@XZ
?_buildTypedAllocator@GSMethod@@CAPAVGSTypedGCObjectAllocator@@XZ
?_buildTypedAllocator@GSMethodParameter@@CAPAVGSTypedGCObjectAllocator@@XZ
?_buildTypedAllocator@GSNativeFileCache@@CAPAVGSTypedGCObjectAllocator@@XZ
?_buildTypedAllocator@GSObjectBaseInfoTag@@CAPAVGSTypedGCObjectAllocator@@XZ
?_buildTypedAllocator@GSProxyBase@@CAPAVGSTypedGCObjectAllocator@@XZ
?_buildTypedAllocator@GSReplication@@CAPAVGSTypedGCObjectAllocator@@XZ
?_buildTypedAllocator@GSSchedulerEntry@@CAPAVGSTypedGCObjectAllocator@@XZ
?_buildTypedAllocator@GSSchedulerEntryMethodCall@@CAPAVGSTypedGCObjectAllocator@@XZ
?_buildTypedAllocator@GSSharedString@@CAPAVGSTypedGCObjectAllocator@@XZ
?_buildTypedAllocator@GSSignal@@CAPAVGSTypedGCObjectAllocator@@XZ
?_buildTypedAllocator@GSSignalConnectionEntry@@CAPAVGSTypedGCObjectAllocator@@XZ
?_buildTypedAllocator@GSSpinLock@@CAPAVGSTypedGCObjectAllocator@@XZ
?_buildTypedAllocator@GSState@@CAPAVGSTypedGCObjectAllocator@@XZ
?_buildTypedAllocator@GSStruct@@CAPAVGSTypedGCObjectAllocator@@XZ
?_buildTypedAllocator@GSTransactionMethod@@CAPAVGSTypedGCObjectAllocator@@XZ
?_buildTypedAllocator@GSType@@CAPAVGSTypedGCObjectAllocator@@XZ
?_buildTypedAllocator@GSVariable@@CAPAVGSTypedGCObjectAllocator@@XZ
?_buildTypedAllocator@GSVariableCollection@@CAPAVGSTypedGCObjectAllocator@@XZ
?_buildTypedAllocator@SocketInfo@@CAPAVGSTypedGCObjectAllocator@@XZ
?_gsAlloc@@YAPAXI@Z
?_gsAllocData@@YAPAXI@Z
?_gsAllocDataNonCollectable@@YAPAXH@Z
?_gsAllocNonCollectable@@YAPAXI@Z
?_gsCurrentTicksPtr@@3PCIC
?_gsCurrentTimeMsPtr@@3PC_KC
?_gsCurrentTimePtr@@3PC_JC
?_gsGetTimeInMs@@YA_KXZ
?_gsRealloc@@YAPAXPAXH@Z
?_gsRecordCrashCheckPointInt@@YAXPBDHH@Z
?_gsRecordCrashCheckPointString@@YAXPBDH0@Z
?_gsRecordDataAlloced@@YAIIPBDH@Z
?_gsRecordSysAlloced@@YAIIPBDH@Z
?_gsScheduleJobSetJobName@@YAHPBDH@Z
?_gsSetAllocCallingSiteAddInfo@@YAXPBD@Z
?_gsTickTimeInitialised@@3_NA
?_rawdbg_capacity_offset@?$ArrayImpl@PAUGSVariable@@$00$00$0A@@@SAHXZ
?_rawdbg_data_offset@?$ArrayImpl@PAUGSVariable@@$00$00$0A@@@SAHXZ
?_rawdbg_size_offset@?$ArrayImpl@PAUGSVariable@@$00$00$0A@@@SAHXZ
?_sys_free@@YAXPAX@Z
?_sys_malloc@@YAPAXI@Z
?_sys_realloc@@YAPAXPAXI@Z
?_typedObjectAllocator@GSAnnotationInit@@0PAVGSTypedGCObjectAllocator@@A
?_typedObjectAllocator@GSAnnotationInitValue@@0PAVGSTypedGCObjectAllocator@@A
?_typedObjectAllocator@GSAspect@@0PAVGSTypedGCObjectAllocator@@A
?_typedObjectAllocator@GSAspectEntry@@0PAVGSTypedGCObjectAllocator@@A
?_typedObjectAllocator@GSAspectEntryHead@@0PAVGSTypedGCObjectAllocator@@A
?_typedObjectAllocator@GSAspectManager@@0PAVGSTypedGCObjectAllocator@@A
?_typedObjectAllocator@GSCallSiteRecorder@@0PAVGSTypedGCObjectAllocator@@A
?_typedObjectAllocator@GSClass@@0PAVGSTypedGCObjectAllocator@@A
?_typedObjectAllocator@GSClassAllocationSite@@0PAVGSTypedGCObjectAllocator@@A
?_typedObjectAllocator@GSClassReference@@0PAVGSTypedGCObjectAllocator@@A
?_typedObjectAllocator@GSEnum@@0PAVGSTypedGCObjectAllocator@@A
?_typedObjectAllocator@GSEnumValue@@0PAVGSTypedGCObjectAllocator@@A
?_typedObjectAllocator@GSExceptionContext@@0PAVGSTypedGCObjectAllocator@@A
?_typedObjectAllocator@GSExceptionHandler@@0PAVGSTypedGCObjectAllocator@@A
?_typedObjectAllocator@GSExceptionInfo@@0PAVGSTypedGCObjectAllocator@@A
?_typedObjectAllocator@GSHandleBase@@0PAVGSTypedGCObjectAllocator@@A
?_typedObjectAllocator@GSInterpreterExecutionContext@@0PAVGSTypedGCObjectAllocator@@A
?_typedObjectAllocator@GSMethod@@0PAVGSTypedGCObjectAllocator@@A
?_typedObjectAllocator@GSMethodParameter@@0PAVGSTypedGCObjectAllocator@@A
?_typedObjectAllocator@GSNativeFileCache@@0PAVGSTypedGCObjectAllocator@@A
?_typedObjectAllocator@GSObjectBaseInfoTag@@0PAVGSTypedGCObjectAllocator@@A
?_typedObjectAllocator@GSProxyBase@@0PAVGSTypedGCObjectAllocator@@A
?_typedObjectAllocator@GSReplication@@0PAVGSTypedGCObjectAllocator@@A
?_typedObjectAllocator@GSSchedulerEntry@@0PAVGSTypedGCObjectAllocator@@A
?_typedObjectAllocator@GSSchedulerEntryMethodCall@@0PAVGSTypedGCObjectAllocator@@A
?_typedObjectAllocator@GSSharedString@@0PAVGSTypedGCObjectAllocator@@A
?_typedObjectAllocator@GSSignal@@0PAVGSTypedGCObjectAllocator@@A
?_typedObjectAllocator@GSSignalConnectionEntry@@0PAVGSTypedGCObjectAllocator@@A
?_typedObjectAllocator@GSSpinLock@@0PAVGSTypedGCObjectAllocator@@A
?_typedObjectAllocator@GSState@@0PAVGSTypedGCObjectAllocator@@A
?_typedObjectAllocator@GSStruct@@0PAVGSTypedGCObjectAllocator@@A
?_typedObjectAllocator@GSTransactionMethod@@0PAVGSTypedGCObjectAllocator@@A
?_typedObjectAllocator@GSType@@0PAVGSTypedGCObjectAllocator@@A
?_typedObjectAllocator@GSVariable@@0PAVGSTypedGCObjectAllocator@@A
?_typedObjectAllocator@GSVariableCollection@@0PAVGSTypedGCObjectAllocator@@A
?_typedObjectAllocator@SocketInfo@@0PAVGSTypedGCObjectAllocator@@A
?acceptNewConnection@@YA?AUSocketInfo@@H@Z
?add@GSStringTableFS@@AAEHPBD@Z
?addFile@GSFileArchiveBuilder@@QAEXPBD@Z
?addInfoTag@GSObjectBase@@QAEXPAUGSObjectBaseInfoTag@@@Z
?addJob@GSWaitOnMultiJobsFinishRunRule@@QAEPAV1@PAVGSJob@@@Z
?addPointer@GSTypedGCObjectDescriptionBuilder@@QAEXIPBD@Z
?addPointer@GSTypedGCRelativeDescriptionBuilder@@QAEXIPBD@Z
?addPointerRange@GSTypedGCObjectDescriptionBuilder@@QAEXIIPBD@Z
?addPointerRange@GSTypedGCRelativeDescriptionBuilder@@QAEXIIPBD@Z
?addRule@GSJobRunRuleComposite@@QAEXPAUGSJobRunRule@@@Z
?addScheduleEntry@GSScheduler@@QAEXPAUGSSchedulerEntry@@@Z
?addState@GSClass@@QAEXPAUGSState@@@Z
?addVariable@GSClass@@QAEXPAUGSVariable@@@Z
?addVariable@GSState@@QAEXPAUGSVariable@@@Z
?addrtoa_ip4@@YAPBDH@Z
?alloc@GSSuspendableStack@@SAPAV1@XZ
?allocAssociatedDataIndex@GSClass@@SAIXZ
?allocMem@GSPoolAllocator@@QAEPAXH@Z
?allocNewBlock@GSPoolAllocator@@AAEXH@Z
?append@?$ArrayImpl@PAUGSVariable@@$00$00$0A@@@QAEXABQAUGSVariable@@@Z
?append@?$ArrayImpl@PAUGSVariable@@$00$00$0A@@@QAEXABV1@@Z
?append@?$ArrayImpl@PAUGSVariable@@$00$00$0A@@@QAEXPBQAUGSVariable@@@Z
?append@?$ArrayImpl@PAUGSVariable@@$00$00$0A@@@QAEXPBQAUGSVariable@@I@Z
?append@GSSchedulerEntryList@@QAEXAAV1@@Z
?append@GSStringBuilder@@QAEXABV?$basic_string@DU?$char_traits@D@std@@V?$stringpool_allocator@D@@@std@@@Z
?append@GSStringBuilder@@QAEXABVGSSharedString@@@Z
?append@GSStringBuilder@@QAEXPBD@Z
?append@GSStringBuilder@@QAEXPBDI@Z
?appendBase64Encoded@GSStringBuilder@@QAEXPBDI@Z
?appendByte@GSStringBuilder@@QAEXD@Z
?appendHTMLQuoted@GSStringBuilder@@QAEXPBD@Z
?appendHTMLQuoted@GSStringBuilder@@QAEXPBG@Z
?appendMimeEncodedWords@GSStringBuilder@@QAEXPBD@Z
?appendMimeEncodedWords@GSStringBuilder@@QAEXPBDI@Z
?appendStringPrettifyed@GSStringBuilder@@QAEXPBD@Z
?appendStringPrettifyed@GSStringBuilder@@QAEXPBDI@Z
?appendURLEncoded@GSStringBuilder@@QAEXPBD@Z
?appendURLEncoded@GSStringBuilder@@QAEXPBDI@Z
?appendXMLCDATA@GSStringBuilder@@QAEXABV?$basic_string@DU?$char_traits@D@std@@V?$stringpool_allocator@D@@@std@@@Z
?appendXMLCDATA@GSStringBuilder@@QAEXABVGSSharedString@@@Z
?appendXMLCDATA@GSStringBuilder@@QAEXPBD@Z
?appendXMLQuoted@GSStringBuilder@@QAEXPBD@Z
?appendXMLQuoted@GSStringBuilder@@QAEXPBG@Z
?assembleComeBackToSuspendableStack@GSSuspendableStack@@CAXAAVGSAssembler_x86@@@Z
?assembleSwitchToOriginalStack@GSSuspendableStack@@CAXAAVGSAssembler_x86@@@Z
?assemblyVTable@GSClass@@AAEXXZ
?assign@?$ArrayImpl@PAUGSVariable@@$00$00$0A@@@QAEXABV1@@Z
?assign@?$ArrayImpl@PAUGSVariable@@$00$00$0A@@@QAEXPBQAUGSVariable@@H@Z
?assign@?$vector@PAVCppProfileInfo@@V?$traceable_allocator@PAVCppProfileInfo@@@@@std@@QAEXIABQAVCppProfileInfo@@@Z
?assign@?$vector@VGSSharedString@@V?$traceable_allocator@VGSSharedString@@@@@std@@QAEXIABVGSSharedString@@@Z
?assign@GSSharedString@@AAEXABV1@@Z
?assign@GSSharedString@@AAEXPBDI@Z
?assmbleRestoreStateFromContext@GSSuspendableStack@@CAXPAUContext@1@PAVGSAssembler_x86@@@Z
?assmbleStoreStateInContext@GSSuspendableStack@@CAXPAUContext@1@PAVGSAssembler_x86@@@Z
?at@?$vector@PAVCppProfileInfo@@V?$traceable_allocator@PAVCppProfileInfo@@@@@std@@QAEAAPAVCppProfileInfo@@I@Z
?at@?$vector@PAVCppProfileInfo@@V?$traceable_allocator@PAVCppProfileInfo@@@@@std@@QBEABQAVCppProfileInfo@@I@Z
?at@?$vector@VGSSharedString@@V?$traceable_allocator@VGSSharedString@@@@@std@@QAEAAVGSSharedString@@I@Z
?at@?$vector@VGSSharedString@@V?$traceable_allocator@VGSSharedString@@@@@std@@QBEABVGSSharedString@@I@Z
?atoaddr_ip4@@YAHPBD@Z
?back@?$ArrayImpl@PAUGSVariable@@$00$00$0A@@@QBEAAPAUGSVariable@@XZ
?back@?$vector@PAVCppProfileInfo@@V?$traceable_allocator@PAVCppProfileInfo@@@@@std@@QAEAAPAVCppProfileInfo@@XZ
?back@?$vector@PAVCppProfileInfo@@V?$traceable_allocator@PAVCppProfileInfo@@@@@std@@QBEABQAVCppProfileInfo@@XZ
?back@?$vector@VGSSharedString@@V?$traceable_allocator@VGSSharedString@@@@@std@@QAEAAVGSSharedString@@XZ
?back@?$vector@VGSSharedString@@V?$traceable_allocator@VGSSharedString@@@@@std@@QBEABVGSSharedString@@XZ
?bad@GSFileAdapter@@UAE_NXZ
?bad@GSFileIOStream@@UAE_NXZ
?bad@GSFileWin32@@UAE_NXZ
?bad@GSJournalingFileIOStream@@UAE_NXZ
?baseDir@GSFileLocator@@0PBDB
?begin@?$ArrayImpl@PAUGSVariable@@$00$00$0A@@@QBEPAPAUGSVariable@@XZ
?begin@?$vector@PAVCppProfileInfo@@V?$traceable_allocator@PAVCppProfileInfo@@@@@std@@QAE?AV?$_Vector_iterator@PAVCppProfileInfo@@V?$traceable_allocator@PAVCppProfileInfo@@@@@2@XZ
?begin@?$vector@PAVCppProfileInfo@@V?$traceable_allocator@PAVCppProfileInfo@@@@@std@@QBE?AV?$_Vector_const_iterator@PAVCppProfileInfo@@V?$traceable_allocator@PAVCppProfileInfo@@@@@2@XZ
?begin@?$vector@VGSSharedString@@V?$traceable_allocator@VGSSharedString@@@@@std@@QAE?AV?$_Vector_iterator@VGSSharedString@@V?$traceable_allocator@VGSSharedString@@@@@2@XZ
?begin@?$vector@VGSSharedString@@V?$traceable_allocator@VGSSharedString@@@@@std@@QBE?AV?$_Vector_const_iterator@VGSSharedString@@V?$traceable_allocator@VGSSharedString@@@@@2@XZ
?begin@GSSharedString@@QAEPBDXZ
?begin@GSSharedString@@QBEPBDXZ
?beginMethod@GSBlobDecoderListenerAdapter@@UAEXPBD@Z
?beginObject@GSBlobDecoderListenerAdapter@@UAEXPBD@Z
?beginRepObject@GSBlobDecoderListenerAdapter@@UAEXPBDH@Z
?blockDecrypt@@YAHPAUcipherInstance@@PAUkeyInstance@@PAEH2@Z
?blockEncrypt@@YAHPAUcipherInstance@@PAUkeyInstance@@PAEH2@Z
?buildAllocator@GSTypedGCObjectDescriptionBuilder@@QAEPAVGSTypedGCObjectAllocator@@H@Z
?buildClassMemoryLayoutInfo@GSClass@@AAEXXZ
?buildGenericMethodInvoke@GSJITCompiler@@AAEXXZ
?buildGenericSetterInvoc@GSJITCompiler@@AAEXXZ
?buildSetterGetter@GSClass@@AAEXXZ
?buildStateMap@GSClass@@AAEXXZ
?buildTransactionMethodInvokeName@GSClass@@CAXPADPBD1@Z
?builtAspectTrampoline@GSJITCompiler@@AAEPAXXZ
?builtClassCompilerTrampoline@GSJITCompiler@@QAEPAXXZ
?builtVTableJumpTrampoline@GSJITCompiler@@AAEXXZ
?builtVTablesStructure@GSClass@@AAEXXZ
?c_str@GSSharedString@@QBEPBDXZ
?capacity@?$ArrayImpl@PAUGSVariable@@$00$00$0A@@@QBEIXZ
?capacity@?$vector@PAVCppProfileInfo@@V?$traceable_allocator@PAVCppProfileInfo@@@@@std@@QBEIXZ
?capacity@?$vector@VGSSharedString@@V?$traceable_allocator@VGSSharedString@@@@@std@@QBEIXZ
?changeRealObject@GSProxyBase@@QAEXPAUGSObjectBase@@@Z
?checkForUpdates@GSHotCodeReplacer@@SAXXZ
?checkNonSharedString@GSSharedString@@ABEXXZ
?checkReload@GSStringTableFS@@AAE_NXZ
?cipherInit@@YAHPAUcipherInstance@@EPAD@Z
?clear@?$ArrayImpl@PAUGSVariable@@$00$00$0A@@@QAEXXZ
?clear@?$vector@PAVCppProfileInfo@@V?$traceable_allocator@PAVCppProfileInfo@@@@@std@@QAEXXZ
?clear@?$vector@VGSSharedString@@V?$traceable_allocator@VGSSharedString@@@@@std@@QAEXXZ
?clear@GSSchedulerEntryList@@QAEXXZ
?clear@GSStringBuilder@@QAEXXZ
?clearSchedulerEntries@GSScheduler@@QAEXXZ
?close@GSFileAdapter@@UAEXXZ
?close@GSFileDb@@QAEXXZ
?close@GSFileIOStream@@UAEXXZ
?close@GSFileWin32@@UAEXXZ
?close@GSJournalingFileIOStream@@UAEXXZ
?close@GSNativeCachedFileBase@@UAEXXZ
?close@GSNativeFileCache@@QAEXPAX@Z
?closeAllFiles@GSNativeFileCache@@QAEXXZ
?commit@GSJournalControl@@SAXXZ
?compileAOT@GSClass@@QAEXXZ
?compileAOT@GSInterpreter@@QAEXXZ
?compileClassMethod@GSJITCompiler@@QAEPAXPAUGSObjectBase@@H@Z
?compileMethod@GSJITCompiler@@QAEXPAUGSMethod@@@Z
?connectToServer@@YA?AUSocketInfo@@PBDH@Z
?connectToServer@@YA?AUSocketInfo@@PBDHH@Z
?contains@?$ArrayImpl@PAUGSVariable@@$00$00$0A@@@QAE_NABQAUGSVariable@@@Z
?contains@?$GSVector@PAVCppProfileInfo@@@@QAE_NABQAVCppProfileInfo@@@Z
?contains@?$GSVector@VGSSharedString@@@@QAE_NABVGSSharedString@@@Z
?contains@GSReplication@@QAE_NPBD@Z
?contains@GSReplication@@QAE_NPBDAAE@Z
?continueAfterCrash@GSScheduler@@SAXXZ
?continueAfterSuspend@GSSuspendableStack@@QAE_NXZ
?copy@GSSharedString@@AAEXPBD@Z
?currentActiveStack@GSSuspendableStack@@0PAV1@A
?currentStack@GSSuspendableStack@@SAPAV1@XZ
?currentTotalSize@GSPoolAllocator@@QAEIXZ
?currentUsedSize@GSPoolAllocator@@QAEIXZ
?customAction@GSBlobIOConfigurator@@QAEXGIP6APAEGHPAXPAE1PAVGSBlobIOLookup@@@ZP6AXGH0PAVGSBlobBuffer@@2@ZP6APAEGHPAVGSBlobDecoderListener@@112@Z@Z
?customAction@GSBlobIOConfigurator@@QAEXP6APAEGHPAXPAE1PAVGSBlobIOLookup@@@ZP6AXGH0PAVGSBlobBuffer@@2@ZP6APAEGHPAVGSBlobDecoderListener@@112@Z@Z
?data@?$ArrayImpl@PAUGSVariable@@$00$00$0A@@@QBEPAPAUGSVariable@@XZ
?data@GSSharedString@@QBEPBDXZ
?debugDumpInfo@GSBufferWithMissingIdFinisher@@UAEXXZ
?dec@GSAtomicCounter@@QAEXXZ
?decMutexInUse@GSMutex@@CAXXZ
?decSpinLockCount@GSSpinLock@@CAXXZ
?decode3ByteLen@GSBlobBuffer@@SAIPBE@Z
?decodeError@GSBlobDecoderListenerAdapter@@UAAXPBDZZ
?decodeObject@GSBlobDecoder@@QAEXPBXPAXPAVGSBlobDecoderListener@@@Z
?decodeRaw@GSBlobDecoder@@QAEXPBXPAXPAVGSBlobDecoderListener@@@Z
?decrementIdWaiterCount@GSBlobBuffer@@AAEXXZ
?decrementIdWaiterFinishListenerCount@GSBlobBuffer@@AAEXXZ
?decrypt@RSACrypt@Crypt@@SA?AUCryptData@2@AAU32@ABU32@@Z
?detach@GSStringBuilder@@QAEPADXZ
?detachData@?$ArrayImpl@PAUGSVariable@@$00$00$0A@@@QAEXXZ
?detachData@GSBlobBuffer@@QAEXXZ
?determinateActiveStateFromVTable@GSClass@@QAEPAUGSState@@PAPAX@Z
?determinateObjectDetails@GSClass@@SAPBDPAUGSObjectBase@@@Z
?determineClassFromObject@GSClass@@SAPAU1@PAUGSObjectBase@@@Z
?disableCurrentStackChange@GSSuspendableStack@@SAXXZ
?doCheckForUpdates@GSHotCodeReplacer@@CAXXZ
?dump@GSCallSiteRecorder@@QAEXXZ
?dump@GSClass@@QAEXXZ
?dump@GSJob@@QAEX_N@Z
?dump@GSJobRunRule@@UAEXXZ
?dump@GSJobRunRuleComposite@@UAEXXZ
?dump@GSMethod@@QAEXXZ
?dump@GSSchedulerEntry@@UAEXXZ
?dump@GSWaitOnJobFinishJobRule@@UAEXXZ
?dumpActiveStacks@GSSuspendableStack@@SAXXZ
?dumpAllCallsites@GSCallSiteRecorder@@SAXXZ
?dumpAllocationSites@GSClass@@QAEXXZ
?dumpAllocationSitesForMostUsedClasses@GSInterpreter@@QAEXI@Z
?dumpCurrentStack@@YAXXZ
?dumpCurrentStack@GSSuspendableStack@@QAEXXZ
?dumpCurrentStackShort@@YAPADXZ
?dumpEntries@GSSchedulerEntryList@@QAEXXZ
?dumpNextGCRemainingTypedObjects@@YAXXZ
?dumpSchedulerEntries@GSScheduler@@QAEXXZ
?dumpTransactionMethodStatistics@GSClass@@QAEXXZ
?dumpTypedGCAllocators@@YAXXZ
?dumpVariables@GSVariableCollection@@QAEXXZ
?dumpbytes@@YAXPBDHH0@Z
?easyReplaceWith@GSClass@@QAE_NPAU1@@Z
?empty@?$vector@PAVCppProfileInfo@@V?$traceable_allocator@PAVCppProfileInfo@@@@@std@@QBE_NXZ
?empty@?$vector@VGSSharedString@@V?$traceable_allocator@VGSSharedString@@@@@std@@QBE_NXZ
?enableCurrentStackChange@GSSuspendableStack@@SAXXZ
?enableDebugger@GSJITCompiler@@2_NA
?encrypt@RSACrypt@Crypt@@SA?AUCryptData@2@AAU32@ABU32@@Z
?end@?$ArrayImpl@PAUGSVariable@@$00$00$0A@@@QBEPAPAUGSVariable@@XZ
?end@?$vector@PAVCppProfileInfo@@V?$traceable_allocator@PAVCppProfileInfo@@@@@std@@QAE?AV?$_Vector_iterator@PAVCppProfileInfo@@V?$traceable_allocator@PAVCppProfileInfo@@@@@2@XZ
?end@?$vector@PAVCppProfileInfo@@V?$traceable_allocator@PAVCppProfileInfo@@@@@std@@QBE?AV?$_Vector_const_iterator@PAVCppProfileInfo@@V?$traceable_allocator@PAVCppProfileInfo@@@@@2@XZ
?end@?$vector@VGSSharedString@@V?$traceable_allocator@VGSSharedString@@@@@std@@QAE?AV?$_Vector_iterator@VGSSharedString@@V?$traceable_allocator@VGSSharedString@@@@@2@XZ
?end@?$vector@VGSSharedString@@V?$traceable_allocator@VGSSharedString@@@@@std@@QBE?AV?$_Vector_const_iterator@VGSSharedString@@V?$traceable_allocator@VGSSharedString@@@@@2@XZ
?end@GSSharedString@@QAEPBDXZ
?end@GSSharedString@@QBEPBDXZ
?endMethod@GSBlobDecoderListenerAdapter@@UAEXXZ
?endObject@GSBlobDecoderListenerAdapter@@UAEXXZ
?ensureCapacity@?$ArrayImpl@PAUGSVariable@@$00$00$0A@@@AAEXI@Z
?ensureCapacity@GSStringBuilder@@QAEXI@Z
?ensureParentStatesExist@GSClass@@AAEXXZ
?enter@GSSharedSemaphoreRecursive@@AAEXI@Z
?enter@GSSpinLockRecursive@@AAEXI@Z
?enterDebugger@@YAXPBD@Z
?erase@?$ArrayImpl@PAUGSVariable@@$00$00$0A@@@QAEXABQAUGSVariable@@@Z
?erase@?$ArrayImpl@PAUGSVariable@@$00$00$0A@@@QAEXPAPAUGSVariable@@@Z
?erase@?$vector@PAVCppProfileInfo@@V?$traceable_allocator@PAVCppProfileInfo@@@@@std@@QAE?AV?$_Vector_iterator@PAVCppProfileInfo@@V?$traceable_allocator@PAVCppProfileInfo@@@@@2@V32@0@Z
?erase@?$vector@PAVCppProfileInfo@@V?$traceable_allocator@PAVCppProfileInfo@@@@@std@@QAE?AV?$_Vector_iterator@PAVCppProfileInfo@@V?$traceable_allocator@PAVCppProfileInfo@@@@@2@V32@@Z
?erase@?$vector@VGSSharedString@@V?$traceable_allocator@VGSSharedString@@@@@std@@QAE?AV?$_Vector_iterator@VGSSharedString@@V?$traceable_allocator@VGSSharedString@@@@@2@V32@0@Z
?erase@?$vector@VGSSharedString@@V?$traceable_allocator@VGSSharedString@@@@@std@@QAE?AV?$_Vector_iterator@VGSSharedString@@V?$traceable_allocator@VGSSharedString@@@@@2@V32@@Z
?executeOnOriginalStack@GSSuspendableStack@@SAXP6AXXZ@Z
?executeOnOriginalStack@GSSuspendableStack@@SAXPAX0H@Z
?existsFile@GSFileArchive@@SA_NPBD0@Z
?find@GSSharedString@@QBEHABV1@@Z
?find@GSSharedString@@QBEHABV?$basic_string@DU?$char_traits@D@std@@V?$stringpool_allocator@D@@@std@@@Z
?find@GSSharedString@@QBEHD@Z
?find@GSSharedString@@QBEHPBD@Z
?findAllocationSite@GSClass@@QAEPAUGSClassAllocationSite@@PBD@Z
?findEnum@GSClass@@QAEPAUGSEnum@@PBD@Z
?findMethod@GSClass@@QAEPAUGSMethod@@PBD@Z
?findMethod@GSState@@QAEPAUGSMethod@@PBD@Z
?findOrCreateSetterGetter@GSClass@@AAEPAVGSValueSetterGetter@@PBD@Z
?findSignal@GSClass@@QAEPAUGSSignal@@PBD@Z
?findState@GSClass@@QAEPAUGSState@@PBD@Z
?findSuperMethod@GSClass@@QAEPAUGSMethod@@PAU2@@Z
?findTransactionMethod@GSClass@@QAEPAUGSMethod@@PAU2@W4TransactionMethodKind@1@@Z
?findTransactionMethod@GSClass@@QAEPAUGSTransactionMethod@@PAUGSMethod@@@Z
?findVariable@GSClass@@QAEPAUGSVariable@@ABVGSSharedString@@@Z
?findVariable@GSState@@QAEPAUGSVariable@@ABVGSSharedString@@@Z
?findVariable@GSStruct@@QAEPAUGSVariable@@PBD@Z
?find_first_not_of@GSSharedString@@QBEHABV1@H@Z
?find_first_of@GSSharedString@@QBEHABV1@H@Z
?finishArchive@GSFileArchiveBuilder@@QAEXXZ
?firstMatch@GSRegExp@@QAEHPBD@Z
?floatAt@GSBlobIOConfigurator@@QAEXGI@Z
?floatProperty@GSBlobDecoderListenerAdapter@@UAEXPBDM@Z
?flush@GSFileAdapter@@UAEXXZ
?flush@GSFileDb@@QAEXXZ
?flush@GSFileIOStream@@UAEXXZ
?flush@GSFileWin32@@UAEXXZ
?flush@GSJournalingFileIOStream@@UAEXXZ
?free@GSRegExp@@QAEXXZ
?free@GSSuspendableStack@@QAEXXZ
?freeFile@GSFileArchive@@SAXPBX@Z
?front@?$ArrayImpl@PAUGSVariable@@$00$00$0A@@@QAEAAPAUGSVariable@@XZ
?front@?$vector@PAVCppProfileInfo@@V?$traceable_allocator@PAVCppProfileInfo@@@@@std@@QAEAAPAVCppProfileInfo@@XZ
?front@?$vector@PAVCppProfileInfo@@V?$traceable_allocator@PAVCppProfileInfo@@@@@std@@QBEABQAVCppProfileInfo@@XZ
?front@?$vector@VGSSharedString@@V?$traceable_allocator@VGSSharedString@@@@@std@@QAEAAVGSSharedString@@XZ
?front@?$vector@VGSSharedString@@V?$traceable_allocator@VGSSharedString@@@@@std@@QBEABVGSSharedString@@XZ
?fullSync@GSJournalControl@@SAXXZ
?gatherCurrentStackShort@@YAPADXZ
?gatherInvokeAllowMap@GSMethod@@QAEXXZ
?gatherSpecifiedStackShort@@YAPADPAH0@Z
?generateKey@RSACrypt@Crypt@@SAXAAUCryptData@2@0@Z
?get@?$ArrayImpl@PAUGSVariable@@$00$00$0A@@@QBEPAPAUGSVariable@@I@Z
?get@GSAtomicCounter@@QAEHXZ
?get@GSStringTableFS@@UAEPBDI@Z
?get@GSStringTableNetwork@@UAEPBDI@Z
?getAspectCode@GSAspectManager@@QAEPAVGSAspectEntryHead@@PAUGSClass@@PAUGSState@@PAUGSMethod@@@Z
?getAspectTrampoline@GSJITCompiler@@QAEPAXXZ
?getAssociatedData@GSClass@@QAEPAXI@Z
?getBookmark@GSStringBuilder@@QAEIXZ
?getBufferData@GSBlobBuffer@@QAEPAEXZ
?getBufferLen@GSBlobBuffer@@QAEIXZ
?getCallCount@CppProfileInfo@@QAEHXZ
?getClass@GSInterpreter@@QAEPAUGSClass@@PBD0@Z
?getClassLoader@GSInterpreter@@QAEPAVGSClassLoader@@XZ
?getClassStatistics@GSInterpreter@@QAEPBDXZ
?getClasses@GSInterpreter@@QAEAAU?$GSStringMap@PAUGSClass@@@@XZ
?getClassesInPackage@GSInterpreter@@QAE?AV?$ArrayImpl@PAUGSClass@@$00$00$0A@@@PBD@Z
?getConfiguredDecoder@GSBlobIOConfigurator@@QAEPAVGSBlobDecoder@@XZ
?getConfiguredReader@GSBlobIOConfigurator@@QAEPAVGSBlobReader@@XZ
?getConfiguredWriter@GSBlobIOConfigurator@@QAEPAVGSBlobWriter@@XZ
?getConstructedObjects@GSClass@@QAE_KXZ
?getContainingList@?$ListImplNode@VGSCallSiteRecorder@@@@QAEPAU?$ListImpl@VGSCallSiteRecorder@@@@XZ
?getContainingList@?$ListImplNode@VGSJob@@@@QAEPAU?$ListImpl@VGSJob@@@@XZ
?getContainingList@?$ListImplNode@VGSSuspendableStack@@@@QAEPAU?$ListImpl@VGSSuspendableStack@@@@XZ
?getContainingList@?$ListImplNode_WithContainingList@VGSSuspendableStack@@@@QAEPAU?$ListImpl@VGSSuspendableStack@@@@XZ
?getContinuationCurrentCount@GSSuspendableStack@@SAHXZ
?getContinuationTotalCount@GSSuspendableStack@@SAHXZ
?getCurrentMethodName@GSSuspendableStack@@QAEPBDXZ
?getCurrentOffset@GSBlobBuffer@@QAEIXZ
?getEntryKind@GSSchedulerEntry@@UAE?AW4SchedulerEntryKind@1@XZ
?getEnumForString@GSEnum@@QAEPAUGSEnumValue@@PBD@Z
?getEnumForValue@GSEnum@@QAEPAUGSEnumValue@@H@Z
?getFirstMethodOnStackNotContainingFilter@@YAPBDPBD@Z
?getFullQualifiedClass@GSInterpreter@@QAEPAUGSClass@@PBD@Z
?getFunction@GSLibraryLoader@@SAP6AXXZPBD0@Z
?getGenericJumpTrampoline@GSJITCompiler@@SAPAXH@Z
?getGenericMethodInvoke@GSJITCompiler@@SAP6APAXPAX0H@ZXZ
?getGenericSetterInvoc@GSJITCompiler@@SAP6AXPAXPAUGSObjectBase@@HPBD@ZXZ
?getIdWaitingBufferCount@GSBlobBuffer@@SAHXZ
?getIdWaitingFinishListenerBufferCount@GSBlobBuffer@@SAHXZ
?getIndex@GSStringTableFS@@UAEIPBD@Z
?getIndex@GSStringTableNetwork@@UAEIPBD@Z
?getInfoTag@GSObjectBase@@QBEPAUGSObjectBaseInfoTag@@W4GSObjectBaseInfoTagKind@@@Z
?getInstance@CppProfileCollection@@SAPAV1@XZ
?getInstance@GSAspectManager@@SAPAV1@XZ
?getInterpreter@GSInterpreter@@SAPAV1@XZ
?getJITCompiler@GSInterpreter@@QAEPAVGSJITCompiler@@XZ
?getKeys@GSFileDb@@QAE?AU?$GSVector@I@@XZ
?getLastSocketErrno@@YAHXZ
?getLocalIp@@YAPBDXZ
?getLocalServerKey@RSACrypt@Crypt@@SAXAAUCryptData@2@0@Z
?getMappingLength@GSMappedFile@@QAEIXZ
?getMappingStart@GSMappedFile@@QAEPAXXZ
?getMethod@GSClass@@QAEP6AXXZPBD@Z
?getMethod@GSObjectBase@@QAEP6AXXZPBD@Z
?getMethodAtAddress@@YAPBDPAX@Z
?getMethodCode@GSClass@@QAEP6AXXZPAUGSMethod@@@Z
?getMethodCodePointer@GSMethod@@QAEPAXXZ
?getMutexCurrent@GSMutex@@SAIXZ
?getMutexTotal@GSMutex@@SAIXZ
?getName@CppProfileInfo@@QAEPBDXZ
?getName@GSBlobIOConfigurator@@AAEPBDH@Z
?getName@GSType@@QAEPBDXZ
?getNewId@GSFileDb@@QAEIXZ
?getOpenFileCount@GSNativeFileCache@@QAEHXZ
?getParen@GSRegExp@@QAEPBDH@Z
?getParenCount@GSRegExp@@QBEHXZ
?getPointerOnType@GSType@@QAEPAU1@XZ
?getReadLock@GSReadWriteLock@@QAEXXZ
?getRealObject@GSProxyBase@@QAEPAUGSObjectBase@@XZ
?getSelfType@GSClass@@QAEPAUGSType@@XZ
?getSelfType@GSEnum@@QAEPAUGSType@@XZ
?getSelfType@GSStruct@@QAEPAUGSType@@XZ
?getSignals@GSClass@@QAEAAU?$GSStringMap@PAUGSSignal@@@@XZ
?getSizeOfPointer@@YAHPAX@Z
?getSocketStatsRecvBytes@@YAHXZ
?getSocketStatsSendBytes@@YAHXZ
?getStates@GSClass@@QAEAAV?$ArrayImpl@PAUGSState@@$00$00$0A@@@XZ
?getStatisticData@GSSchedulerEntry@@UAE_NAAUGSSchedulerStatisticEntry@@@Z
?getTagKind@GSSchedulerEntryMethodCall@@UBE?AW4GSObjectBaseInfoTagKind@@XZ
?getTime@CppProfileInfo@@QAEHXZ
?getUnsafeRawVariables@GSClass@@QAEAAVGSVariableCollection@@XZ
?getValueSetterGetter@GSClass@@QAEPAVGSValueSetterGetter@@PBD@Z
?getVariableOffset@GSClass@@QAEHPBD0@Z
?getVariables@GSClass@@QAEABVGSVariableCollection@@XZ
?getVariablesOffset@GSClass@@SAHXZ
?getWriteLock@GSReadWriteLock@@QAEXXZ
?get_allocator@?$vector@PAVCppProfileInfo@@V?$traceable_allocator@PAVCppProfileInfo@@@@@std@@QBE?AV?$traceable_allocator@PAVCppProfileInfo@@@@XZ
?get_allocator@?$vector@VGSSharedString@@V?$traceable_allocator@VGSSharedString@@@@@std@@QBE?AV?$traceable_allocator@VGSSharedString@@@@XZ
?gsAddMemoryWriteWatch@@YAXPAI@Z
?gsAreJobsUsingThreads@@YA_NXZ
?gsBase64Decode@@YA_NPBDPAVGSBlobBuffer@@@Z
?gsBinaryBlobToHexString@@YAPADPAXH@Z
?gsCheckMemoryWriteWatches@@YAXXZ
?gsCreateNativeFileAccess@@YAPAUIGSFile@@XZ
?gsDebuggerBreak@@YAXPBDZZ
?gsDumpDataAllocInfos@@YAXXZ
?gsExceptionCleanupTry@@YAXPAX@Z
?gsExceptionSetupTry@@YAP6A?AW4GSExceptionMode@@PAX@ZXZ
?gsExistsFile@@YA_NPBD@Z
?gsForceGC@@YAXXZ
?gsFork@@YAHXZ
?gsFree@@YAXPAX@Z
?gsGCFindHeader@@YAPAXPAX@Z
?gsGetCachedFileInfos@@YAPBDXZ
?gsGetClassReflectionResolver@@YAPAUGSClassReflectionResolver@@XZ
?gsGetCrashCheckPointArray@@YAPAUCrashCheckPointEntry@@XZ
?gsGetCrashCheckPointArrayPtr@@YAPAIXZ
?gsGetCurrentExceptionInfo@@YAPAUGSExceptionInfo@@XZ
?gsGetCurrentMethodPC@@YAPAHPAXPAPAX@Z
?gsGetFileSize@@YA_KPBD@Z
?gsGetFreeDiskspaceInMB@@YA_KPBD@Z
?gsGetHandleResolver@@YAPAVGSHandleResolver@@XZ
?gsGetLastGCDuration@@YAHXZ
?gsGetLastGCTime@@YA_JXZ
?gsGetLogFileName@@YAPBDXZ
?gsGetProcessId@@YAHXZ
?gsGetScreenshotsDirectoryBase@@YAPBDXZ
?gsGetSystemCPUCoreCount@@YAIXZ
?gsGetThreadsCount@@YAHXZ
?gsGetTransactionMonitor@@YAPAUGSTransactionMonitor@@XZ
?gsGetUniqueProcessId@@YAPBDXZ
?gsGetWriteDirectoryBase@@YAPBDXZ
?gsInit@@YAXXZ
?gsIsGCNeeded@@YA_NXZ
?gsIsMainThread@@YA_NXZ
?gsIsWow64@@YA_NXZ
?gsLogAssertFail@@YAXPBDZZ
?gsLogCustomLevel@@YAXPBD0@Z
?gsLogDebug@@YAXPBDZZ
?gsLogError@@YAXPBDZZ
?gsLogException@@YAXPBD@Z
?gsLogInfo@@YAXPBDZZ
?gsLogWarn@@YAXPBDZZ
?gsMakeDir@@YAXPBD@Z
?gsParseLinuxProcFile@@YAPAU?$GSStringMap@PBD@@PBD@Z
?gsPerformGCIfNeeded@@YAXXZ
?gsRegisterExplicitRoot@@YAXPAXH@Z
?gsRegisterFinaliser@@YAXPAXP6AX00@Z0@Z
?gsRegisterGCCollectionFinishListener@@YAXPAUGSGCCollectionFinishListener@@@Z
?gsRegisterHeapValidationFunction@@YAXP6AXXZ@Z
?gsRemoveDirectory@@YAXPBD@Z
?gsRemoveFile@@YAXPBD@Z
?gsReportXmlError@@YAXPAXPBDZZ
?gsSetAllocCallingSite@@YAXPBDH@Z
?gsSetCachedFileInfos@@YAXPBD@Z
?gsSetClassReflectionResolver@@YAXPAUGSClassReflectionResolver@@@Z
?gsSetCurrentThreadPriority@@YAXW4GSThreadPriority@@@Z
?gsSetHandleResolver@@YAXPAVGSHandleResolver@@@Z
?gsSetTransactionMonitor@@YAXPAUGSTransactionMonitor@@@Z
?gsUnregisterExplicitRoot@@YAXPAX@Z
?gsValidateHeapStatus_internal@@YAXXZ
?gs_impl__string_checkmem@@YAXXZ
?gs_replaceplaceholder@@YAPBDPBD0@Z
?gs_settranslation@@YAXPBD@Z
?gs_string_free@@YAXPAX@Z
?gs_string_livecount@@YAIXZ
?gs_string_livemem@@YAIXZ
?gs_string_malloc@@YAPAXI@Z
?gs_string_overallcount@@YAIXZ
?gs_string_overallmem@@YAIXZ
?gs_translate@@YAPBDPBD0@Z
?gs_translate@@YAPBDPBD@Z
?handleAt@GSBlobIOConfigurator@@QAEXGI@Z
?hasContainingListPointer@?$ListImplNode@VGSCallSiteRecorder@@@@SA_NXZ
?hasContainingListPointer@?$ListImplNode@VGSJob@@@@SA_NXZ
?hasContainingListPointer@?$ListImplNode@VGSSuspendableStack@@@@SA_NXZ
?hasContainingListPointer@?$ListImplNode_WithContainingList@VGSSuspendableStack@@@@SA_NXZ
?hasPointerTypes@GSClass@@QAE_NXZ
?hasRun@GSJob@@QAE_NXZ
?hexToInt@GSStringUtils@@SAHPBD@Z
?hexToInt@GSStringUtils@@SAHPBDH@Z
?ignoreFilterList@GSSpinLock@@0PAPAXA
?inc@GSAtomicCounter@@QAEXXZ
?incCallCount@CppProfileInfo@@QAEXXZ
?incMutexInUse@GSMutex@@CAXXZ
?incSpinLockCount@GSSpinLock@@CAXXZ
?incTime@CppProfileInfo@@QAEXH@Z
?incrementIdWaiterCount@GSBlobBuffer@@CAXXZ
?incrementIdWaiterFinishListenerCount@GSBlobBuffer@@CAXXZ
?index_of@?$ArrayImpl@PAUGSVariable@@$00$00$0A@@@QAEHABQAUGSVariable@@@Z
?initJitCode@GSSuspendableStack@@CAXXZ
?initSockets@@YAXXZ
?initialise@GSHotCodeReplacer@@SAXXZ
?injectEntry@GSSchedulerEntryList@@QAEXPAUGSSchedulerEntry@@@Z
?injectScheduleEntry@GSScheduler@@QAEXPAUGSSchedulerEntry@@@Z
?injectScheduleEntryAtEnd@GSScheduler@@QAEXPAUGSSchedulerEntry@@@Z
?innerValidate@GSSchedulerEntryList@@AAEXXZ
?insert@?$ArrayImpl@PAUGSVariable@@$00$00$0A@@@QAEXIABQAUGSVariable@@@Z
?insert@?$ArrayImpl@PAUGSVariable@@$00$00$0A@@@QAEXIPBQAUGSVariable@@@Z
?insert@?$vector@PAVCppProfileInfo@@V?$traceable_allocator@PAVCppProfileInfo@@@@@std@@QAE?AV?$_Vector_iterator@PAVCppProfileInfo@@V?$traceable_allocator@PAVCppProfileInfo@@@@@2@V32@ABQAVCppProfileInfo@@@Z
?insert@?$vector@PAVCppProfileInfo@@V?$traceable_allocator@PAVCppProfileInfo@@@@@std@@QAEXV?$_Vector_iterator@PAVCppProfileInfo@@V?$traceable_allocator@PAVCppProfileInfo@@@@@2@IABQAVCppProfileInfo@@@Z
?insert@?$vector@VGSSharedString@@V?$traceable_allocator@VGSSharedString@@@@@std@@QAE?AV?$_Vector_iterator@VGSSharedString@@V?$traceable_allocator@VGSSharedString@@@@@2@V32@ABVGSSharedString@@@Z
?insert@?$vector@VGSSharedString@@V?$traceable_allocator@VGSSharedString@@@@@std@@QAEXV?$_Vector_iterator@VGSSharedString@@V?$traceable_allocator@VGSSharedString@@@@@2@IABVGSSharedString@@@Z
?instance@GSAspectManager@@0V?$GSStaticPointer@PAVGSAspectManager@@@@A
?intAt@GSBlobIOConfigurator@@QAEXGI@Z
?intProperty@GSBlobDecoderListenerAdapter@@UAEXPBDH@Z
?invalidateBadReadPointerInfo@@YAXXZ
?invokeSetter@GSValueSetterGetter@@QAEXPAUGSObjectBase@@PBD@Z
?isAssigmentCompatible@GSStruct@@QAE_NPAU1@@Z
?isAssignmentCompatible@GSType@@QAE_NPAU1@@Z
?isBadReadPointer@@YA_NPBXH@Z
?isBufferReady@GSBlobBuffer@@QAE_NXZ
?isChildOf@GSClass@@QAE_NPAU1@@Z
?isEmpty@GSSchedulerEntryList@@QAE_NXZ
?isInUse@GSSuspendableStack@@QAE_NXZ
?isInvalid@GSSuspendableStack@@QAE_NXZ
?isInvokeAllowed@GSMethod@@QAE_NW4NetworkReplicationDirection@@@Z
?isLegalUTF8Sequence@@YAEPBE0@Z
?isLocked@GSSharedSemaphore@@QBE_NXZ
?isReadLockActive@GSReadWriteLock@@QAE_NXZ
?isReadyToSchedule@GSSchedulerEntryMethodCall@@UAEHXZ
?isRuleFullfiled@GSJobRunRuleComposite@@UAE_NXZ
?isRuleFullfiled@GSWaitOnJobFinishJobRule@@UAE_NXZ
?isRunnable@GSJob@@QAE_NXZ
?isStringOnStack@GSSharedString@@CA_NPBD@Z
?isWriteLockActive@GSReadWriteLock@@QAE_NXZ
?jitAspectTrampoline@GSJITCompiler@@0PAXA
?jitCodeContinueAfterSuspend@GSSuspendableStack@@0PAXA
?jitCodeExecTemporaryOnOriginalStack@GSSuspendableStack@@0PAXA
?jitCodeStartRunning@GSSuspendableStack@@0PAXA
?jitCodeSuspend@GSSuspendableStack@@0PAXA
?jitCompilerTrampoline@GSJITCompiler@@0PAXA
?joinJournal@GSJournalingFileIOStream@@QAEPAUGSJournal@@PBD@Z
?layoutClass@GSClass@@AAEXXZ
?leave@GSSharedSemaphoreRecursive@@AAEXI@Z
?leave@GSSpinLockRecursive@@AAEXI@Z
?length@GSSharedString@@QBEIXZ
?listAndSortUsedClasses@GSInterpreter@@AAEXAAV?$ArrayImpl@PAUGSClass@@$00$00$0A@@@@Z
?listFiles@GSFileArchive@@SA?AUGSStringList@@PBD0_N0@Z
?listFiles@GSFileLocator@@CAXAAUGSStringList@@ABVGSSharedString@@AAVGSRegExp@@_N@Z
?listFiles@GSFileLocator@@SA?AUGSStringList@@PBD0_N@Z
?load@GSFileDb@@QAEPBDIAA_K@Z
?load@GSStringTableFS@@AAEXPBD@Z
?loadFile@GSFileArchive@@SAPAXPBDAAI0@Z
?loadStatic@GSFileDb@@QAEPBDIAA_K@Z
?locate@GSFileLocator@@SA?AVGSSharedString@@ABV2@0@Z
?locateFile@GSFileLocator@@SA?AVGSSharedString@@PBD@Z
?lock@GSMutex@@QAEXXZ
?lock@GSSemaphore@@QAEXXZ
?lock@GSSharedSemaphore@@QAEXXZ
?lock@GSSharedSemaphoreRecursive@@QAEXXZ
?lock@GSSpinLock@@QAEXXZ
?lock@GSSpinLockRecursive@@QAEXXZ
?lock@GSStaticMutex@@QAEXXZ
?makeKey@@YAHPAUkeyInstance@@EHPAD@Z
?match@GSRegExp@@QAE_NPBD@Z
?match@GSScheduleEntryFilter@@UAE_NPAUGSObjectBase@@@Z
?matchFilter@GSSchedulerEntry@@UAE_NPAUGSScheduleEntryFilter@@@Z
?matchFilter@GSSchedulerEntryMethodCall@@UAE_NPAUGSScheduleEntryFilter@@@Z
?max_size@?$vector@PAVCppProfileInfo@@V?$traceable_allocator@PAVCppProfileInfo@@@@@std@@QBEIXZ
?max_size@?$vector@VGSSharedString@@V?$traceable_allocator@VGSSharedString@@@@@std@@QBEIXZ
?methodBegin@GSBlobIOConfigurator@@QAEXG@Z
?methodEnd@GSBlobIOConfigurator@@QAEXXZ
?newCallSite@GSCallSiteRecorder@@SAPAV1@PBD@Z
?newInstance@GSClass@@QAEPAUGSObjectBase@@PAUGSClassAllocationSite@@@Z
?newInstance@GSClass@@QAEPAUGSObjectBase@@PBD@Z
?newInterpreter@GSInterpreter@@SAPAV1@PBDPAPBDH@Z
?nextEntry@GSSchedulerEntryList@@QAEPAUGSSchedulerEntry@@XZ
?nextMatch@GSRegExp@@QAEHPBDH@Z
?notifyAll@GSSemaphore@@QAEXXZ
?nullObject@GSBlobDecoderListenerAdapter@@UAEXXZ
?objectAt@GSBlobIOConfigurator@@QAEXGIPAUGSClass@@@Z
?objectBegin@GSBlobIOConfigurator@@QAEXG@Z
?objectEnd@GSBlobIOConfigurator@@QAEXXZ
?objectGotId@GSBufferWithMissingIdFinisher@@UAEXPAUGSObjectBase@@H@Z
?objectProperty@GSBlobDecoderListenerAdapter@@UAEXPBD@Z
?open@GSFileAdapter@@UAE_NPBD0W4GSFile_OpenMode@@@Z
?open@GSFileAdapter@@UAE_NPBDW4GSFile_OpenMode@@@Z
?open@GSFileIOStream@@UAE_NPBD0W4GSFile_OpenMode@@@Z
?open@GSFileIOStream@@UAE_NPBDW4GSFile_OpenMode@@@Z
?open@GSFileWin32@@UAE_NPBD0W4GSFile_OpenMode@@@Z
?open@GSFileWin32@@UAE_NPBDW4GSFile_OpenMode@@@Z
?open@GSJournalingFileIOStream@@UAE_NPBD0W4GSFile_OpenMode@@@Z
?open@GSJournalingFileIOStream@@UAE_NPBDW4GSFile_OpenMode@@@Z
?open@GSNativeCachedFileBase@@UAE_NPBD0W4GSFile_OpenMode@@@Z
?open@GSNativeCachedFileBase@@UAE_NPBDW4GSFile_OpenMode@@@Z
?openAndLock@GSNativeFileCache@@QAEPAUIGSFile@@PBDAAPAX0W4GSFile_OpenMode@@@Z
?openListenSocket@@YAHHHPBD@Z
?padDecrypt@@YAHPAUcipherInstance@@PAUkeyInstance@@PAEH2@Z
?padEncrypt@@YAHPAUcipherInstance@@PAUkeyInstance@@PAEH2@Z
?performInit@GSStaticMutex@@SAXXZ
?pop_back@?$ArrayImpl@PAUGSVariable@@$00$00$0A@@@QAEXXZ
?pop_back@?$vector@PAVCppProfileInfo@@V?$traceable_allocator@PAVCppProfileInfo@@@@@std@@QAEXXZ
?pop_back@?$vector@VGSSharedString@@V?$traceable_allocator@VGSSharedString@@@@@std@@QAEXXZ
?pop_front@?$ArrayImpl@PAUGSVariable@@$00$00$0A@@@QAEXXZ
?populateStateVTable@GSClass@@AAEXPAUGSState@@PAPAX@Z
?populateVTable@GSClass@@AAEXPAPAXAAU?$GSStringMap@PAUGSMethod@@@@@Z
?printStatistics@GSBlobIOConfigurator@@SAXXZ
?printStatistics@GSFileDb@@QAEXXZ
?printStatistics@GSScheduler@@QAEXI@Z
?printStatistics@GSScheduler@@QAEXXZ
?profiler_afterfork@@YAXXZ
?profiler_preparefork@@YAXXZ
?pureCodeStartRunning@GSSuspendableStack@@CA_NPAX0@Z
?pureCodeSuspend@GSSuspendableStack@@AAEXXZ
?pureContinueAfterSuspend@GSSuspendableStack@@CA_NPAD@Z
?pureExecuteOnOriginalStack@GSSuspendableStack@@CAXPAX@Z
?pushStaticPointersOnGCStack@GSStaticPointerBase@@SAXXZ
?push_back@?$ArrayImpl@PAUGSVariable@@$00$00$0A@@@QAEXABQAUGSVariable@@@Z
?push_back@?$vector@PAVCppProfileInfo@@V?$traceable_allocator@PAVCppProfileInfo@@@@@std@@QAEXABQAVCppProfileInfo@@@Z
?push_back@?$vector@VGSSharedString@@V?$traceable_allocator@VGSSharedString@@@@@std@@QAEXABVGSSharedString@@@Z
?putc@GSFileAdapter@@UAEXE@Z
?putc@GSFileAdapter@@UAEXEI@Z
?putc@GSFileIOStream@@UAEXE@Z
?putc@GSFileIOStream@@UAEXEI@Z
?putc@GSFileWin32@@UAEXE@Z
?putc@GSFileWin32@@UAEXEI@Z
?putc@GSJournalingFileIOStream@@UAEXE@Z
?putc@GSJournalingFileIOStream@@UAEXEI@Z
?quoteClassnameForDLLMethodLookup@GSJITCompiler@@SAPBDPBD@Z
?rawData@GSStringBuilder@@QAEPADXZ
?rbegin@?$ArrayImpl@PAUGSVariable@@$00$00$0A@@@QBE?AUreverse_iterator@1@XZ
?rbegin@?$vector@PAVCppProfileInfo@@V?$traceable_allocator@PAVCppProfileInfo@@@@@std@@QAE?AV?$reverse_iterator@V?$_Vector_iterator@PAVCppProfileInfo@@V?$traceable_allocator@PAVCppProfileInfo@@@@@std@@@2@XZ
?rbegin@?$vector@PAVCppProfileInfo@@V?$traceable_allocator@PAVCppProfileInfo@@@@@std@@QBE?AV?$reverse_iterator@V?$_Vector_const_iterator@PAVCppProfileInfo@@V?$traceable_allocator@PAVCppProfileInfo@@@@@std@@@2@XZ
?rbegin@?$vector@VGSSharedString@@V?$traceable_allocator@VGSSharedString@@@@@std@@QAE?AV?$reverse_iterator@V?$_Vector_iterator@VGSSharedString@@V?$traceable_allocator@VGSSharedString@@@@@std@@@2@XZ
?rbegin@?$vector@VGSSharedString@@V?$traceable_allocator@VGSSharedString@@@@@std@@QBE?AV?$reverse_iterator@V?$_Vector_const_iterator@VGSSharedString@@V?$traceable_allocator@VGSSharedString@@@@@std@@@2@XZ
?read@GSBlobReader@@QAEPAUGSObjectBase@@PBXPAXPBD@Z
?read@GSBlobReader@@QAE_NPBXPAX1@Z
?read@GSFileAdapter@@UAE_NPAD_K@Z
?read@GSFileIOStream@@UAE_NPAD_K@Z
?read@GSFileWin32@@UAE_NPAD_K@Z
?read@GSJournalingFileIOStream@@UAE_NPAD_K@Z
?readRaw@GSBlobReader@@QAEPBXPBXPAX1@Z
?readSocketBytes@@YAHHPADH@Z
?readSocketBytesBlocking@@YA_NHPADH@Z
?readSocketLineBlocking@@YA_NHPADH@Z
?reconfigureAspects@GSAspectManager@@QAEXXZ
?reconfigureAspects@GSClass@@QAEXXZ
?recordAllocSize@@YAXIPAX@Z
?recordCallsite@GSCallSiteRecorder@@QAEXPAX@Z
?recordPointerToSize@@YAXPAXH@Z
?refillScheduleList@GSScheduler@@AAEXXZ
?registerAspect@GSAspectManager@@QAEXPAVGSAspect@@@Z
?registerLivingStacksAsGCRoots@GSSuspendableStack@@SAXXZ
?releaseLock@GSReadWriteLock@@QAEXXZ
?remove@?$ArrayImpl@PAUGSVariable@@$00$00$0A@@@QAEXI@Z
?remove@?$GSVector@PAVCppProfileInfo@@@@QAEXABQAVCppProfileInfo@@@Z
?remove@?$GSVector@VGSSharedString@@@@QAEXABVGSSharedString@@@Z
?remove@?$ListImplNode_WithContainingList@VGSSuspendableStack@@@@QAEXXZ
?remove@GSFileDb@@QAEXI@Z
?removeAllNotContainedNTimes@?$ArrayImpl@PAUGSVariable@@$00$00$0A@@@QAEXH@Z
?removeDuplicate@?$ArrayImpl@PAUGSVariable@@$00$00$0A@@@QAEXXZ
?removeEntry@GSSchedulerEntryList@@QAEXPAUGSSchedulerEntry@@@Z
?removeFromList@GSSchedulerEntry@@QAEXXZ
?removeInfoTag@GSObjectBase@@QAEXPAUGSObjectBaseInfoTag@@@Z
?removeInfoTag@GSSchedulerEntryMethodCall@@QAEXXZ
?removeScheduleEntries@GSScheduler@@QAEXPAUGSScheduleEntryFilter@@@Z
?removeScheduleEntries@GSSchedulerEntryList@@QAEXPAUGSScheduleEntryFilter@@@Z
?rend@?$ArrayImpl@PAUGSVariable@@$00$00$0A@@@QBE?AUreverse_iterator@1@XZ
?rend@?$vector@PAVCppProfileInfo@@V?$traceable_allocator@PAVCppProfileInfo@@@@@std@@QAE?AV?$reverse_iterator@V?$_Vector_iterator@PAVCppProfileInfo@@V?$traceable_allocator@PAVCppProfileInfo@@@@@std@@@2@XZ
?rend@?$vector@PAVCppProfileInfo@@V?$traceable_allocator@PAVCppProfileInfo@@@@@std@@QBE?AV?$reverse_iterator@V?$_Vector_const_iterator@PAVCppProfileInfo@@V?$traceable_allocator@PAVCppProfileInfo@@@@@std@@@2@XZ
?rend@?$vector@VGSSharedString@@V?$traceable_allocator@VGSSharedString@@@@@std@@QAE?AV?$reverse_iterator@V?$_Vector_iterator@VGSSharedString@@V?$traceable_allocator@VGSSharedString@@@@@std@@@2@XZ
?rend@?$vector@VGSSharedString@@V?$traceable_allocator@VGSSharedString@@@@@std@@QBE?AV?$reverse_iterator@V?$_Vector_const_iterator@VGSSharedString@@V?$traceable_allocator@VGSSharedString@@@@@std@@@2@XZ
?repObjectRef@GSBlobDecoderListenerAdapter@@UAEXPBDH@Z
?replace@GSRegExp@@QAEPBDPBD0_N@Z
?rescheduleEntry@GSScheduler@@QAEXPAUGSSchedulerEntry@@@Z
?reserve@?$ArrayImpl@PAUGSVariable@@$00$00$0A@@@QAEXI@Z
?reserve@?$vector@PAVCppProfileInfo@@V?$traceable_allocator@PAVCppProfileInfo@@@@@std@@QAEXI@Z
?reserve@?$vector@VGSSharedString@@V?$traceable_allocator@VGSSharedString@@@@@std@@QAEXI@Z
?reset@CppProfileInfo@@QAEXXZ
?reset@GSPoolAllocator@@QAEXXZ
?resetContext@GSInterpreter@@QAEXXZ
?resetStateAfterCrash@GSSuspendableStack@@SAXXZ
?resetToBookmark@GSStringBuilder@@QAEXI@Z
?resize@?$ArrayImpl@PAUGSVariable@@$00$00$0A@@@QAEXI@Z
?resize@?$vector@PAVCppProfileInfo@@V?$traceable_allocator@PAVCppProfileInfo@@@@@std@@QAEXI@Z
?resize@?$vector@PAVCppProfileInfo@@V?$traceable_allocator@PAVCppProfileInfo@@@@@std@@QAEXIPAVCppProfileInfo@@@Z
?resize@?$vector@VGSSharedString@@V?$traceable_allocator@VGSSharedString@@@@@std@@QAEXI@Z
?resize@?$vector@VGSSharedString@@V?$traceable_allocator@VGSSharedString@@@@@std@@QAEXIVGSSharedString@@@Z
?resizeToFit@?$ArrayImpl@PAUGSVariable@@$00$00$0A@@@QAEXXZ
?resizeWithoutFit@?$ArrayImpl@PAUGSVariable@@$00$00$0A@@@QAEXI@Z
?resolveEnums@GSClass@@AAEXXZ
?resolveMethodReturnTypes@GSClass@@AAEXXZ
?resolveStruct@GSClass@@AAEXPAUGSStruct@@@Z
?resolveStructs@GSClass@@AAEXXZ
?resolveType@GSClass@@QAEPAUGSType@@ABVGSSharedString@@@Z
?resolveType@GSClass@@QAEPAUGSType@@PAU2@@Z
?reverse@?$ArrayImpl@PAUGSVariable@@$00$00$0A@@@QAEXXZ
?runJob@GSJob@@QAEXXZ
?runOnStack@GSSuspendableStack@@QAE_NPAX0H@Z
?schedule@GSJobScheduler@@QAEXPAVGSJob@@@Z
?scheduleAsync@GSJobScheduler@@SAXPAVGSJob@@@Z
?scheduleCurrentList@GSScheduler@@QAEHXZ
?scheduleSingleEntry@GSScheduler@@QAE_NXZ
?seekBegin@GSFileAdapter@@UAEX_J@Z
?seekBegin@GSFileIOStream@@UAEX_J@Z
?seekBegin@GSFileWin32@@UAEX_J@Z
?seekBegin@GSJournalingFileIOStream@@UAEX_J@Z
?seekEnd@GSFileAdapter@@UAEX_J@Z
?seekEnd@GSFileIOStream@@UAEX_J@Z
?seekEnd@GSFileWin32@@UAEX_J@Z
?seekEnd@GSJournalingFileIOStream@@UAEX_J@Z
?set@?$ArrayImpl@PAUGSVariable@@$00$00$0A@@@QAEXIABQAUGSVariable@@@Z
?set@?$ArrayImpl@PAUGSVariable@@$00$00$0A@@@QAEXIPBQAUGSVariable@@@Z
?set@GSAtomicCounter@@QAEXH@Z
?setAllocSiteAddInfo@?$ArrayImpl@PAUGSVariable@@$00$00$0A@@@AAEXXZ
?setAssociatedData@GSClass@@QAEXIPAX@Z
?setAutoFlush@GSFileDb@@QAEX_N@Z
?setBaseDir@GSFileLocator@@SAXPBD@Z
?setContainingList@?$ListImplNode@VGSCallSiteRecorder@@@@QAEXPAU?$ListImpl@VGSCallSiteRecorder@@@@@Z
?setContainingList@?$ListImplNode@VGSJob@@@@QAEXPAU?$ListImpl@VGSJob@@@@@Z
?setContainingList@?$ListImplNode@VGSSuspendableStack@@@@QAEXPAU?$ListImpl@VGSSuspendableStack@@@@@Z
?setContainingList@?$ListImplNode_WithContainingList@VGSSuspendableStack@@@@QAEXPAU?$ListImpl@VGSSuspendableStack@@@@@Z
?setFinishListener@GSBlobBuffer@@QAEXPAUGSBlobBufferFinishedListener@@@Z
?setInvokeAllowed@GSMethod@@QAEXW4NetworkReplicationDirection@@_N@Z
?setLastAllocOperation@@YAXD@Z
?setLibraryLoaderDLLFilter@GSLibraryLoader@@SAXP6A_NPBD@Z@Z
?setLocalIp@@YAXPBD@Z
?setLogInfos@@YAXPBD0H@Z
?setReadOnly@GSStringTableFS@@QAEXXZ
?setRule@GSJob@@QAEXPAUGSJobRunRule@@@Z
?setSocketCork@@YAXH_N@Z
?setSocketNonBlocking@@YAXH_N@Z
?setupCrashHandler@@YAXXZ
?shutdownGC@@YAXXZ
?shutdownSocket@@YAXH@Z
?shutdownSockets@@YAXXZ
?size@?$ArrayImpl@PAUGSVariable@@$00$00$0A@@@QBEIXZ
?size@?$vector@PAVCppProfileInfo@@V?$traceable_allocator@PAVCppProfileInfo@@@@@std@@QBEIXZ
?size@?$vector@VGSSharedString@@V?$traceable_allocator@VGSSharedString@@@@@std@@QBEIXZ
?size@GSSharedString@@QBEIXZ
?size@GSStringBuilder@@QAEHXZ
?size@GSStringTableFS@@QAEIXZ
?sortinEntry@GSScheduler@@AAEXHPAUGSSchedulerEntry@@@Z
?sortinEntry@GSSchedulerEntryList@@QAEXPAUGSSchedulerEntry@@@Z
?sortinList@GSScheduler@@AAEXAAVGSSchedulerEntryList@@@Z
?spinLockCount@GSSpinLock@@0HA
?splitString@GSStringUtils@@SAHABVGSSharedString@@0AAUGSStringList@@@Z
?splitStringAndMakeEmptyFields@GSStringUtils@@SAHABVGSSharedString@@0AAUGSStringList@@@Z
?stackToContinueAfter@GSSuspendableStack@@0PAXA
?staticContext@GSSuspendableStack@@0URegisterContext@1@A
?store@GSFileDb@@QAEXIPBD_K@Z
?stringAt@GSBlobIOConfigurator@@QAEXGI@Z
?stringProperty@GSBlobDecoderListenerAdapter@@UAEXPBD0@Z
?stripBlanks@GSStringUtils@@SA?AVGSSharedString@@ABV2@@Z
?substr@GSSharedString@@QBE?AV1@I@Z
?substr@GSSharedString@@QBE?AV1@II@Z
?suspend@GSSuspendableStack@@QAEXXZ
?swap@?$ArrayImpl@PAUGSVariable@@$00$00$0A@@@QAEXII@Z
?swap@?$ArrayImpl@PAUGSVariable@@$00$00$0A@@@QAEXPAV1@@Z
?swap@?$vector@PAVCppProfileInfo@@V?$traceable_allocator@PAVCppProfileInfo@@@@@std@@QAEXAAV12@@Z
?swap@?$vector@VGSSharedString@@V?$traceable_allocator@VGSSharedString@@@@@std@@QAEXAAV12@@Z
?sys_current_mallocmem@@YAHXZ
?sys_total_mallocmem@@YAHXZ
?tellPos@GSFileAdapter@@UAE_JXZ
?tellPos@GSFileIOStream@@UAE_JXZ
?tellPos@GSFileWin32@@UAE_JXZ
?tellPos@GSJournalingFileIOStream@@UAE_JXZ
?tempExecSaveStack@GSSuspendableStack@@0PAXA
?testAndSet@GSSpinLock@@AAEHPCHH@Z
?testAssemblerCode@GSInternalSelfTests@@SAXXZ
?testNxBit@GSInternalSelfTests@@SAXXZ
?theInstance@CppProfileCollection@@0V1@A
?toString@GSStringBuilder@@QAEPADXZ
?trim@GSStringUtils@@SAPBDPBD@Z
?tryEnter@GSSpinLockRecursive@@AAEHI@Z
?tryGetIndex@GSStringTableFS@@UAEIPBD@Z
?tryGetIndex@GSStringTableNetwork@@UAEIPBD@Z
?tryLock@GSSpinLock@@QAE_NXZ
?tryLock@GSSpinLockRecursive@@QAE_NXZ
?unknownProperty@GSBlobDecoderListenerAdapter@@UAEXPBDIII@Z
?unlinkEntry@GSSchedulerEntryList@@AAEXPAUGSSchedulerEntry@@0@Z
?unlock@GSMutex@@QAEXXZ
?unlock@GSSemaphore@@QAEXXZ
?unlock@GSSharedSemaphore@@QAEXXZ
?unlock@GSSharedSemaphoreRecursive@@QAEXXZ
?unlock@GSSpinLock@@QAEXXZ
?unlock@GSSpinLockRecursive@@QAEXXZ
?unlock@GSStaticMutex@@QAEXXZ
?unmap@GSMappedFile@@QAEXXZ
?unregisterAspect@GSAspectManager@@QAEXPAVGSAspect@@@Z
?updateBadReadPointerInfo@@YAXXZ
?validate@GSSchedulerEntryList@@AAEXXZ
?validateClass@GSClass@@AAEXXZ
?validateMemoryOrigin@?$ArrayImpl@PAUGSVariable@@$00$00$0A@@@QAEXXZ
?validateObject@GSClass@@AAEXPAUGSObjectBase@@HABVGSSharedString@@@Z
?validateObject@GSClass@@QAEXPAUGSObjectBase@@@Z
?validateReplication@GSClass@@AAEXXZ
?validateSize@GSStruct@@QAEXXZ
?validateType@GSType@@QAEXXZ
?wait@GSSemaphore@@QAEXH@Z
?wait@GSSemaphore@@QAEXXZ
?waitOnScheduleFinish@GSJobScheduler@@QAEXXZ
?walk@GSClassStructureWalker@@QAEXPAVGSClassStructureWalkerListener@@PAUGSClass@@@Z
?walkStruct@GSClassStructureWalker@@AAEXPAVGSClassStructureWalkerListener@@PAUGSVariable@@HABVGSSharedString@@@Z
?walkStruct@GSClassStructureWalker@@QAEXPAVGSClassStructureWalkerListener@@PAUGSStruct@@HABVGSSharedString@@@Z
?watchDogPoint@@YAXXZ
?win32WorkARoundCrashHandler@@YAXPAX@Z
?write@GSBlobWriter@@QAEXPAXPAVGSBlobBuffer@@@Z
?write@GSFileAdapter@@UAEXPBD_K@Z
?write@GSFileIOStream@@UAEXPBD_K@Z
?write@GSFileWin32@@UAEXPBD_K@Z
?write@GSJournalingFileIOStream@@UAEXPBD_K@Z
?writeRaw@GSBlobWriter@@QAEXPAXPAVGSBlobBuffer@@@Z
?writeSocketBytes@@YAHHPBDH@Z
?writeSocketBytesBlocking@@YA_NHPBDH@Z
?write_3byte@GSBlobBuffer@@QAEXH@Z
?write_3byte@GSBlobBuffer@@QAEXHI@Z
?write_buffer@GSBlobBuffer@@QAEXPAV1@@Z
?write_char@GSBlobBuffer@@QAEXD@Z
?write_cstring@GSBlobBuffer@@QAEXPBD@Z
?write_float@GSBlobBuffer@@QAEXM@Z
?write_id_placeholder@GSBlobBuffer@@QAEIXZ
?write_int@GSBlobBuffer@@QAEXH@Z
?write_int_at@GSBlobBuffer@@QAEXIH@Z
?write_missing_id@GSBlobBuffer@@QAEXIH@Z
?write_rawmem@GSBlobBuffer@@QAEXPAXI@Z
?write_short@GSBlobBuffer@@QAEXG@Z
?write_short_at@GSBlobBuffer@@QAEXIG@Z
?write_string@GSBlobBuffer@@QAEXPBD@Z
MD5Final
MD5Init
MD5Transform
MD5Update
__sys_checkmem